################################################################################
#                                                                              #
#      IAR Universal Linker V5.7.0.39                                          #
#                                                                              #
#           Link time     =  02/Jun/2019  00:14:23                             #
#           Target CPU    =  x51                                               #
#           List file     =  D:\ZbNode\Proj\ZbNode\ide\Release\List\ZbNode-v3. #
#                            0-g91fac5a0-190525.map                            #
#           Output file 1 =  D:\ZbNode\Proj\ZbNode\ide\Release\Exe\ZbNode-v3.0 #
#                            -g91fac5a0-190525.hex                             #
#                            Format: intel-extended                            #
#           Output file 2 =  D:\ZbNode\Proj\ZbNode\ide\Release\Exe\ZbNode-v3.0 #
#                            -g91fac5a0-190525.sim                             #
#                            Format: simple-code                               #
#           Command line  =  "-IC:\Program Files (x86)\IAR Systems\Embedded Wo #
#                            rkbench 6.5\8051\CONFIG\"                         #
#                            -D_NR_OF_BANKS=0x07 -D_CODEBANK_END=0xFFFF        #
#                            -D_CODEBANK_START=0x8000 -D?CBANK_MASK=0xFF       #
#                            -D?CBANK=0x9F                                     #
#                            D:\ZbNode\Proj\ZbNode\ide\Release\Obj\Application #
#                            .r51                                              #
#                            D:\ZbNode\Proj\ZbNode\ide\Release\Obj\BC95.r51    #
#                            D:\ZbNode\Proj\ZbNode\ide\Release\Obj\BosMem.r51  #
#                            D:\ZbNode\Proj\ZbNode\ide\Release\Obj\att7053bu.r #
#                            51                                                #
#                            D:\ZbNode\Proj\ZbNode\ide\Release\Obj\attribute.r #
#                            51                                                #
#                            D:\ZbNode\Proj\ZbNode\ide\Release\Obj\board.r51   #
#                            D:\ZbNode\Proj\ZbNode\ide\Release\Obj\chipcon_cst #
#                            artup.r51                                         #
#                            D:\ZbNode\Proj\ZbNode\ide\Release\Obj\crc.r51     #
#                            D:\ZbNode\Proj\ZbNode\ide\Release\Obj\gpioSpi.r51 #
#                            D:\ZbNode\Proj\ZbNode\ide\Release\Obj\hal_clock.r #
#                            51                                                #
#                            D:\ZbNode\Proj\ZbNode\ide\Release\Obj\hal_flash.r #
#                            51                                                #
#                            D:\ZbNode\Proj\ZbNode\ide\Release\Obj\hal_mcu.r51 #
#                            D:\ZbNode\Proj\ZbNode\ide\Release\Obj\hal_pwm.r51 #
#                            D:\ZbNode\Proj\ZbNode\ide\Release\Obj\hal_rf.r51  #
#                            D:\ZbNode\Proj\ZbNode\ide\Release\Obj\hal_startup #
#                            .r51                                              #
#                            D:\ZbNode\Proj\ZbNode\ide\Release\Obj\hal_time.r5 #
#                            1                                                 #
#                            D:\ZbNode\Proj\ZbNode\ide\Release\Obj\hal_uart.r5 #
#                            1                                                 #
#                            D:\ZbNode\Proj\ZbNode\ide\Release\Obj\kernel.r51  #
#                            D:\ZbNode\Proj\ZbNode\ide\Release\Obj\list.r51    #
#                            D:\ZbNode\Proj\ZbNode\ide\Release\Obj\netMngr.r51 #
#                            D:\ZbNode\Proj\ZbNode\ide\Release\Obj\nvram.r51   #
#                            D:\ZbNode\Proj\ZbNode\ide\Release\Obj\sMac.r51    #
#                            D:\ZbNode\Proj\ZbNode\ide\Release\Obj\sNwk.r51    #
#                            D:\ZbNode\Proj\ZbNode\ide\Release\Obj\startup.r51 #
#                            D:\ZbNode\Proj\ZbNode\ide\Release\Obj\sysTask.r51 #
#                            D:\ZbNode\Proj\ZbNode\ide\Release\Obj\sysTimer.r5 #
#                            1                                                 #
#                            D:\ZbNode\Proj\ZbNode\ide\Release\Obj\upgrade.r51 #
#                            D:\ZbNode\Proj\ZbNode\ide\Release\Obj\ush_cmd.r51 #
#                            D:\ZbNode\Proj\ZbNode\ide\Release\Obj\ushell.r51  #
#                            -o                                                #
#                            D:\ZbNode\Proj\ZbNode\ide\Release\Exe\ZbNode-v3.0 #
#                            -g91fac5a0-190525.hex                             #
#                            -Fintel-extended -l                               #
#                            D:\ZbNode\Proj\ZbNode\ide\Release\List\ZbNode-v3. #
#                            0-g91fac5a0-190525.map                            #
#                            -xms                                              #
#                            "-IC:\Program Files (x86)\IAR Systems\Embedded Wo #
#                            rkbench 6.5\8051\LIB\"                            #
#                            -f                                                #
#                            D:\ZbNode\Proj\ZbNode\ide/../../../Tools/ota.xcl  #
#                            (-D_XDATA_START=0x0001 -D_XDATA_END=0x1EFF        #
#                            -D_IDATA_END=0xFF -D_CODE_START=0x2000            #
#                            -D_CODE_END=0x7FFF -D_FIRST_BANK_ADDR=0x10000     #
#                            -D?REGISTER_BANK=0 -D_REGISTER_BANK_START=0       #
#                            -D?PBANK_NUMBER=00 -D_BREG_START=0x00             #
#                            -D?VB=0x20 -Z(BIT)BREG=_BREG_START                #
#                            -Z(BIT)BIT_N=0-7F                                 #
#                            -Z(DATA)REGISTERS+8=_REGISTER_BANK_START          #
#                            -Z(DATA)BDATA_Z,BDATA_N,BDATA_I=20-2F             #
#                            -Z(DATA)VREG=08-7F -Z(DATA)PSP,XSP=08-7F          #
#                            -Z(DATA)DOVERLAY=08-7F                            #
#                            -Z(DATA)DATA_I,DATA_Z,DATA_N=08-7F                #
#                            -U(IDATA)0-7F=(DATA)0-7F                          #
#                            -Z(IDATA)IDATA_I,IDATA_Z,IDATA_N=08-_IDATA_END    #
#                            -Z(IDATA)ISTACK+_IDATA_STACK_SIZE#08-_IDATA_END   #
#                            -Z(IDATA)IOVERLAY=08-FF                           #
#                            -Z(CODE)INTVEC=_CODE_START                        #
#                            -Z(CODE)CHECKSUM=0x2090-0x2091                    #
#                            -Z(CODE)CRC_SHDW=0x2092-0x2093                    #
#                            -Z(CODE)BIT_ID,BDATA_ID,DATA_ID,IDATA_ID,IXDATA_I #
#                            D,PDATA_ID,PDATA_Z,XDATA_ID=_CODE_START-_CODE_END #
#                            -P(CODE)CSTART,BANK_RELAYS,RCODE,DIFUNCT,NEAR_COD #
#                            E=_CODE_START-_CODE_END                           #
#                            -P(CODE)CODE_C=_CODE_START-_CODE_END              #
#                            -P(CONST)XDATA_ROM_C=0x8000-0xFFFF                #
#                            -P(CODE)XDATA_ROM_C_FLASH=0x18000-0x1FFFF         #
#                            -QXDATA_ROM_C=XDATA_ROM_C_FLASH                   #
#                            -P(CODE)BANKED_CODE=_CODE_START-_CODE_END,0x18000 #
#                            -0x1FFFF,0x28000-0x2FFFF,0x38000-0x3FFFF,0x48000- #
#                            0x4FFFF,0x58000-0x5FFFF,0x68000-0x6FFFF,0x78000-0 #
#                            x7C7FF                                            #
#                            -Z(XDATA)XSTACK+_XDATA_STACK_SIZE=_XDATA_START-_X #
#                            DATA_END                                          #
#                            -Z(XDATA)XDATA_Z,XDATA_I=_XDATA_START-_XDATA_END  #
#                            -P(XDATA)XDATA_N=_XDATA_START-_XDATA_END -cx51    #
#                            -M(CODE)[(_CODEBANK_START+_FIRST_BANK_ADDR)-(_COD #
#                            EBANK_END+_FIRST_BANK_ADDR)]*_NR_OF_BANKS+_FIRST_ #
#                            BANK_ADDR=0x8000                                  #
#                            -ww69=i                                           #
#                            -D_ZIGNV_ADDRESS_SPACE_START=(((_NR_OF_BANKS+1)*_ #
#                            FIRST_BANK_ADDR)-0x3800)                          #
#                            -D_ZIGNV_ADDRESS_SPACE_END=(_ZIGNV_ADDRESS_SPACE_ #
#                            START+0x2FFF)                                     #
#                            -Z(CODE)ZIGNV_ADDRESS_SPACE=_ZIGNV_ADDRESS_SPACE_ #
#                            START-_ZIGNV_ADDRESS_SPACE_END                    #
#                            -D_LOCK_BITS_ADDRESS_SPACE_START=(((_NR_OF_BANKS+ #
#                            1)*_FIRST_BANK_ADDR)-0x10)                        #
#                            -D_LOCK_BITS_ADDRESS_SPACE_END=(_LOCK_BITS_ADDRES #
#                            S_SPACE_START+0x0F)                               #
#                            -Z(CODE)LOCK_BITS_ADDRESS_SPACE=_LOCK_BITS_ADDRES #
#                            S_SPACE_START-_LOCK_BITS_ADDRESS_SPACE_END        #
#                            -D_IEEE_ADDRESS_SPACE_START=(_LOCK_BITS_ADDRESS_S #
#                            PACE_START-0x08)                                  #
#                            -D_IEEE_ADDRESS_SPACE_END=(_IEEE_ADDRESS_SPACE_ST #
#                            ART+0x07)                                         #
#                            -Z(CODE)IEEE_ADDRESS_SPACE=_IEEE_ADDRESS_SPACE_ST #
#                            ART-_IEEE_ADDRESS_SPACE_END                       #
#                            -D_DEV_PRIVATE_KEY_ADDRESS_SPACE_START=(_IEEE_ADD #
#                            RESS_SPACE_START-0x16)                            #
#                            -D_DEV_PRIVATE_KEY_ADDRESS_SPACE_END=(_DEV_PRIVAT #
#                            E_KEY_ADDRESS_SPACE_START+0x15)                   #
#                            -Z(CODE)DEV_PRIVATE_KEY_ADDRESS_SPACE=_DEV_PRIVAT #
#                            E_KEY_ADDRESS_SPACE_START-_DEV_PRIVATE_KEY_ADDRES #
#                            S_SPACE_END                                       #
#                            -D_CA_PUBLIC_KEY_ADDRESS_SPACE_START=(_DEV_PRIVAT #
#                            E_KEY_ADDRESS_SPACE_START-0x16)                   #
#                            -D_CA_PUBLIC_KEY_ADDRESS_SPACE_END=(_CA_PUBLIC_KE #
#                            Y_ADDRESS_SPACE_START+0x15)                       #
#                            -Z(CODE)CA_PUBLIC_KEY_ADDRESS_SPACE=_CA_PUBLIC_KE #
#                            Y_ADDRESS_SPACE_START-_CA_PUBLIC_KEY_ADDRESS_SPAC #
#                            E_END                                             #
#                            -D_IMPLICIT_CERTIFICATE_ADDRESS_SPACE_START=(_CA_ #
#                            PUBLIC_KEY_ADDRESS_SPACE_START-0x30)              #
#                            -D_IMPLICIT_CERTIFICATE_ADDRESS_SPACE_END=(_IMPLI #
#                            CIT_CERTIFICATE_ADDRESS_SPACE_START+0x2F)         #
#                            -Z(CODE)IMPLICIT_CERTIFICATE_ADDRESS_SPACE=_IMPLI #
#                            CIT_CERTIFICATE_ADDRESS_SPACE_START-_IMPLICIT_CER #
#                            TIFICATE_ADDRESS_SPACE_END                        #
#                            -D_RESERVED_ADDRESS_SPACE_START=(_IMPLICIT_CERTIF #
#                            ICATE_ADDRESS_SPACE_START-0x78C)                  #
#                            -D_RESERVED_ADDRESS_SPACE_END=(_RESERVED_ADDRESS_ #
#                            SPACE_START+0x78B)                                #
#                            -Z(CODE)RESERVED_ADDRESS_SPACE=_RESERVED_ADDRESS_ #
#                            SPACE_START-_RESERVED_ADDRESS_SPACE_END           #
#                            -J2,crc16,=2000-208F,2094-7C7FF -HFFFF)           #
#                            -D_NR_OF_VIRTUAL_REGISTERS=8 -D?PBANK=0x93        #
#                            -e?BCALL_FF=?BCALL -e?BRET_FF=?BRET               #
#                            -e?BDISPATCH_FF=?BDISPATCH                        #
#                            -e_large_write=_formatted_write                   #
#                            -Osimple-code=D:\ZbNode\Proj\ZbNode\ide\Release\E #
#                            xe\ZbNode-v3.0-g91fac5a0-190525.sim               #
#                            -s __program_start                                #
#                            "C:\Program Files (x86)\IAR Systems\Embedded Work #
#                            bench 6.5\8051\LIB\CLIB\cl-pli-blxd-1e16x01.r51"  #
#                            -D_IDATA_STACK_SIZE=0x40 -D?ESP=0 -D?ESP_MASK=0   #
#                            -D_EXTENDED_STACK_START=0                         #
#                            -D_EXTENDED_STACK_SIZE=0                          #
#                            -D_PDATA_STACK_SIZE=0x80                          #
#                            -D_XDATA_STACK_SIZE=0x300                         #
#                            -D_XDATA_HEAP_SIZE=0x0 -D_FAR_HEAP_SIZE=0x0       #
#                            -D_HUGE_HEAP_SIZE=0x0 -D_FAR22_HEAP_SIZE=0x0      #
#                                                                              #
#                           Copyright (C) 1987-2013 IAR Systems AB.            #
################################################################################





                ****************************************
                *                                      *
                *           CROSS REFERENCE            *
                *                                      *
                ****************************************

       Program entry at : CODE      00002F6D  Relocatable, from module : CSTARTUP




                ****************************************
                *                                      *
                *            RUNTIME MODEL             *
                *                                      *
                ****************************************

  __SystemLibrary          = CLib
  __calling_convention     = xdata_reentrant
  __code_model             = banked
  __core                   = plain
  __data_model             = large
  __dptr_size              = 16
  __extended_stack         = disabled
  __location_for_constants = data
  __number_of_dptrs        = 1
  __rt_version             = 1

                ****************************************
                *                                      *
                *    AUTOMATIC SYMBOL REDIRECTIONS     *
                *                                      *
                ****************************************

                  There are no automatic symbol redirections.



                ****************************************
                *                                      *
                *              MODULE MAP              *
                *                                      *
                ****************************************


  DEFINED ABSOLUTE ENTRIES
  PROGRAM MODULE, NAME : ?ABS_ENTRY_MOD

Absolute parts
           ENTRY                   ADDRESS         REF BY
           =====                   =======         ======
           _FAR22_HEAP_SIZE        00000000 
           _HUGE_HEAP_SIZE         00000000 
           _FAR_HEAP_SIZE          00000000 
           _XDATA_HEAP_SIZE        00000000 
           _XDATA_STACK_SIZE       00000300 
           _PDATA_STACK_SIZE       00000080 
           _EXTENDED_STACK_SIZE    00000000 
           _EXTENDED_STACK_START   00000000 
           ?ESP_MASK               00000000 
           ?ESP                    00000000 
           _IDATA_STACK_SIZE       00000040 
           ?PBANK                  00000093 
           _NR_OF_VIRTUAL_REGISTERS
                                   00000008 
           _RESERVED_ADDRESS_SPACE_END
                                   0003FF8B 
           _RESERVED_ADDRESS_SPACE_START
                                   0003F800 
           _IMPLICIT_CERTIFICATE_ADDRESS_SPACE_END
                                   0003FFBB 
           _IMPLICIT_CERTIFICATE_ADDRESS_SPACE_START
                                   0003FF8C 
           _CA_PUBLIC_KEY_ADDRESS_SPACE_END
                                   0003FFD1 
           _CA_PUBLIC_KEY_ADDRESS_SPACE_START
                                   0003FFBC 
           _DEV_PRIVATE_KEY_ADDRESS_SPACE_END
                                   0003FFE7 
           _DEV_PRIVATE_KEY_ADDRESS_SPACE_START
                                   0003FFD2 
           _IEEE_ADDRESS_SPACE_END
                                   0003FFEF 
           _IEEE_ADDRESS_SPACE_START
                                   0003FFE8 
           _LOCK_BITS_ADDRESS_SPACE_END
                                   0003FFFF 
           _LOCK_BITS_ADDRESS_SPACE_START
                                   0003FFF0 
           _ZIGNV_ADDRESS_SPACE_END
                                   0003F7FF 
           _ZIGNV_ADDRESS_SPACE_START
                                   0003C800 
           ?VB                     00000020        ?BANKED_ENTER_XDATA (?BANKED_ENTER_XDATA)
                                                   ?BANKED_LEAVE_XDATA (?BANKED_LEAVE_XDATA)
                                                   ?INTERRUPT_ENTER_XSP (?INTERRUPT_ENTER_XSP)
                                                   ?INTERRUPT_LEAVE_XSP (?INTERRUPT_LEAVE_XSP)
           _BREG_START             00000000 
           ?PBANK_NUMBER           00000000 
           _REGISTER_BANK_START    00000000 
           ?REGISTER_BANK          00000000        Segment part 6 (CSTARTUP)
           _FIRST_BANK_ADDR        00010000 
           _CODE_END               00007FFF 
           _CODE_START             00002000 
           _IDATA_END              000000FF 
           _XDATA_END              00001EFF 
           _XDATA_START            00000001 
           ?CBANK                  0000009F        Segment part 0 (?BANKED_CODE_SUPPORT)
           ?CBANK_MASK             000000FF 
           _CODEBANK_START         00008000 
           _CODEBANK_END           0000FFFF 
           _NR_OF_BANKS            00000007 
    *************************************************************************

  FILE NAME : D:\ZbNode\Proj\ZbNode\ide\Release\Obj\Application.r51
  PROGRAM MODULE, NAME : Application

  SEGMENTS IN THE MODULE
  ======================
SFR_AN
  Relative segment, address: DATA 00000080 - 00000080 (0x1 bytes), align: 0
  Segment part 1. ROOT.       Intra module refs:   ApplicationInit
                                                   BC95InitAT (BC95)
                                                   halSpiBufRead (gpioSpi)
                                                   halSpiBufWrite (gpioSpi)
                                                   halSpiInit (gpioSpi)
                                                   halSpiTranceive (gpioSpi)
           ENTRY                   ADDRESS         REF BY
           =====                   =======         ======
           _A_P0                   00000080 
           LOCAL                   ADDRESS         
           =====                   =======         
           P0                      00000080 
    -------------------------------------------------------------------------
SFR_AN
  Relative segment, address: DATA 000000F3 - 000000F3 (0x1 bytes), align: 0
  Segment part 2. ROOT.       Intra module refs:   ApplicationInit
                                                   BC95InitAT (BC95)
                                                   halSpiBufRead (gpioSpi)
                                                   halSpiBufWrite (gpioSpi)
                                                   halSpiInit (gpioSpi)
                                                   halSpiTranceive (gpioSpi)
           ENTRY                   ADDRESS         REF BY
           =====                   =======         ======
           P0SEL                   000000F3 
    -------------------------------------------------------------------------
SFR_AN
  Relative segment, address: DATA 000000FD - 000000FD (0x1 bytes), align: 0
  Segment part 3. ROOT.       Intra module refs:   ApplicationInit
                                                   BC95InitAT (BC95)
                                                   halSpiBufRead (gpioSpi)
                                                   halSpiBufWrite (gpioSpi)
                                                   halSpiInit (gpioSpi)
                                                   halSpiTranceive (gpioSpi)
           ENTRY                   ADDRESS         REF BY
           =====                   =======         ======
           P0DIR                   000000FD 
    -------------------------------------------------------------------------
XDATA_Z
  Relative segment, address: XDATA 00000301 - 00000301 (0x1 bytes), align: 0
  Segment part 11.            Intra module refs:   AppTask
           ENTRY                   ADDRESS         REF BY
           =====                   =======         ======
           LampPower               00000301 
    -------------------------------------------------------------------------
XDATA_Z
  Relative segment, address: XDATA 00000302 - 00000381 (0x80 bytes), align: 0
  Segment part 12.            Intra module refs:   AppTask
           ENTRY                   ADDRESS         REF BY
           =====                   =======         ======
           rxBuf                   00000302 
    -------------------------------------------------------------------------
XDATA_Z
  Relative segment, address: XDATA 00000382 - 00000383 (0x2 bytes), align: 0
  Segment part 14.            Intra module refs:   AppTask
           LOCAL                   ADDRESS         
           =====                   =======         
           MySeq                   00000382 
    -------------------------------------------------------------------------
XDATA_Z
  Relative segment, address: XDATA 00000384 - 00000384 (0x1 bytes), align: 0
  Segment part 15.            Intra module refs:   AppTask
                                                   ApplicationInit
           LOCAL                   ADDRESS         
           =====                   =======         
           heartBeatTimerId        00000384 
    -------------------------------------------------------------------------
<BANKED_CODE,BANK_RELAYS..> 1 (was BANKED_CODE)
  Relative segment, address: CODE 00007C72 - 00007C79 (0x8 bytes), align: 0
  Segment part 21.            Intra module refs:   heartBeatTimeOutCallBack::?relay
           LOCAL                   ADDRESS         
           =====                   =======         
           heartBeatTimeOutCallBack
                                   00007C72 
               calls direct, is indirectly called
               ISTACK = 00000000 ( 00000002 )
    -------------------------------------------------------------------------
<BANKED_CODE,BANK_RELAYS..> 1 (was BANKED_CODE)
  Relative segment, address: CODE 00007C7A - 00007C80 (0x7 bytes), align: 0
  Segment part 25.            Intra module refs:   heartBeatTimeOutCallBack
                                                   netDataIndication
           LOCAL                   ADDRESS         
           =====                   =======         
           ?Subroutine0            00007C7A 
    -------------------------------------------------------------------------
<BANKED_CODE,BANK_RELAYS..> 1 (was BANKED_CODE)
  Relative segment, address: CODE 00007C81 - 00007C87 (0x7 bytes), align: 0
  Segment part 26.            Intra module refs:   ?Subroutine0
                                                   ApplicationInit
    -------------------------------------------------------------------------
<BANKED_CODE,BANK_RELAYS..> 1 (was BANKED_CODE)
  Relative segment, address: CODE 00007C88 - 00007CD5 (0x4e bytes), align: 0
  Segment part 27.            Intra module refs:   ApplicationInit::?relay
           ENTRY                   ADDRESS         REF BY
           =====                   =======         ======
           ApplicationInit         00007C88 
               calls direct
               XSTACK = 00000000 ( 00000004 )
               ISTACK = 00000000 ( 00000002 )
    -------------------------------------------------------------------------
<BANKED_CODE,BANK_RELAYS..> 1 (was BANKED_CODE)
  Relative segment, address: CODE 00007CD6 - 00007F30 (0x25b bytes), align: 0
  Segment part 29.            Intra module refs:   AppTask::?relay
           ENTRY                   ADDRESS         REF BY
           =====                   =======         ======
           AppTask                 00007CD6 
               calls direct
               XSTACK = 00000000 ( 0000001A )
               ISTACK = 00000000 ( 00000001 )
    -------------------------------------------------------------------------
<BANKED_CODE,BANK_RELAYS..> 1 (was BANKED_CODE)
  Relative segment, address: CODE 00007F31 - 00007F3D (0xd bytes), align: 0
  Segment part 31.            Intra module refs:   AppTask
           LOCAL                   ADDRESS         
           =====                   =======         
           ?Subroutine4            00007F31 
    -------------------------------------------------------------------------
<BANKED_CODE,BANK_RELAYS..> 1 (was BANKED_CODE)
  Relative segment, address: CODE 00007F3E - 00007F49 (0xc bytes), align: 0
  Segment part 32.            Intra module refs:   AppTask
           LOCAL                   ADDRESS         
           =====                   =======         
           ?Subroutine3            00007F3E 
    -------------------------------------------------------------------------
<BANKED_CODE,BANK_RELAYS..> 1 (was BANKED_CODE)
  Relative segment, address: CODE 00007F4A - 00007F50 (0x7 bytes), align: 0
  Segment part 33.            Intra module refs:   AppTask
           LOCAL                   ADDRESS         
           =====                   =======         
           ?Subroutine2            00007F4A 
    -------------------------------------------------------------------------
<BANKED_CODE,BANK_RELAYS..> 1 (was BANKED_CODE)
  Relative segment, address: CODE 00007F51 - 00007F65 (0x15 bytes), align: 0
  Segment part 34.            Intra module refs:   ?Subroutine2
                                                   AppTask
           LOCAL                   ADDRESS         
           =====                   =======         
           ?Subroutine5            00007F51 
    -------------------------------------------------------------------------
<BANKED_CODE,BANK_RELAYS..> 1 (was BANKED_CODE)
  Relative segment, address: CODE 00007F66 - 00007F6E (0x9 bytes), align: 0
  Segment part 38.            Intra module refs:   netDataIndication::?relay
           LOCAL                   ADDRESS         
           =====                   =======         
           netDataIndication       00007F66 
               calls direct, is indirectly called
               ISTACK = 00000000 ( 00000002 )
    -------------------------------------------------------------------------
<BANKED_CODE,BANK_RELAYS..> 1 (was BANK_RELAYS)
  Relative segment, address: CODE 000032DB - 000032E0 (0x6 bytes), align: 0
  Segment part 22.            Intra module refs:   AppTask
                                                   ApplicationInit
           LOCAL                   ADDRESS         
           =====                   =======         
           heartBeatTimeOutCallBack::?relay
                                   000032DB 
    -------------------------------------------------------------------------
<BANKED_CODE,BANK_RELAYS..> 1 (was BANK_RELAYS)
  Relative segment, address: CODE 000032D5 - 000032DA (0x6 bytes), align: 0
  Segment part 28.
           ENTRY                   ADDRESS         REF BY
           =====                   =======         ======
           ApplicationInit::?relay
                                   000032D5        main (startup)
    -------------------------------------------------------------------------
<BANKED_CODE,BANK_RELAYS..> 1 (was BANK_RELAYS)
  Relative segment, address: CODE 000032CF - 000032D4 (0x6 bytes), align: 0
  Segment part 30.
           ENTRY                   ADDRESS         REF BY
           =====                   =======         ======
           AppTask::?relay         000032CF        tasksArr (sysTask)
    -------------------------------------------------------------------------
<BANKED_CODE,BANK_RELAYS..> 1 (was BANK_RELAYS)
  Relative segment, address: CODE 000032C9 - 000032CE (0x6 bytes), align: 0
  Segment part 39.            Intra module refs:   ApplicationInit
           LOCAL                   ADDRESS         
           =====                   =======         
           netDataIndication::?relay
                                   000032C9 
    -------------------------------------------------------------------------
<XDATA_ROM_C> 1 (was XDATA_ROM_C)
  Relative segment, address: CONST 000082E0 - 000082E4 (0x5 bytes), align: 0
  Segment part 9.             Intra module refs:   AppTask
    -------------------------------------------------------------------------
<XDATA_ROM_C> 1 (was XDATA_ROM_C)
  Relative segment, address: CONST 000082F1 - 000082F4 (0x4 bytes), align: 0
  Segment part 16.            Intra module refs:   ApplicationInit
           ENTRY                   ADDRESS         REF BY
           =====                   =======         ======
           __Constant_28000        000082F1 
    -------------------------------------------------------------------------
<XDATA_ROM_C> 1 (was XDATA_ROM_C)
  Relative segment, address: CONST 000082ED - 000082F0 (0x4 bytes), align: 0
  Segment part 17.            Intra module refs:   ApplicationInit
           ENTRY                   ADDRESS         REF BY
           =====                   =======         ======
           __Constant_1f4          000082ED 
    -------------------------------------------------------------------------
<XDATA_ROM_C> 1 (was XDATA_ROM_C)
  Relative segment, address: CONST 000082E9 - 000082EC (0x4 bytes), align: 0
  Segment part 18.            Intra module refs:   AppTask
                                                   attributeGet (attribute)
           ENTRY                   ADDRESS         REF BY
           =====                   =======         ======
           __Constant_38806        000082E9 
    -------------------------------------------------------------------------
<XDATA_ROM_C> 1 (was XDATA_ROM_C)
  Relative segment, address: CONST 000082E5 - 000082E8 (0x4 bytes), align: 0
  Segment part 19.            Intra module refs:   AppTask
           ENTRY                   ADDRESS         REF BY
           =====                   =======         ======
           __Constant_1e0000       000082E5 
    -------------------------------------------------------------------------
<BANKED_CODE,XDATA_ROM_C_FLASH> 1 (was XDATA_ROM_C_FLASH)
  Relative segment, address: CODE 000082E0 - 000082E4 (0x5 bytes), align: 0
  Segment part 42.            Intra module refs:   Segment part 9
    -------------------------------------------------------------------------
<BANKED_CODE,XDATA_ROM_C_FLASH> 1 (was XDATA_ROM_C_FLASH)
  Relative segment, address: CODE 000082F1 - 000082F4 (0x4 bytes), align: 0
  Segment part 43.            Intra module refs:   __Constant_28000
    -------------------------------------------------------------------------
<BANKED_CODE,XDATA_ROM_C_FLASH> 1 (was XDATA_ROM_C_FLASH)
  Relative segment, address: CODE 000082ED - 000082F0 (0x4 bytes), align: 0
  Segment part 44.            Intra module refs:   __Constant_1f4
    -------------------------------------------------------------------------
<BANKED_CODE,XDATA_ROM_C_FLASH> 1 (was XDATA_ROM_C_FLASH)
  Relative segment, address: CODE 000082E9 - 000082EC (0x4 bytes), align: 0
  Segment part 45.            Intra module refs:   __Constant_38806
    -------------------------------------------------------------------------
<BANKED_CODE,XDATA_ROM_C_FLASH> 1 (was XDATA_ROM_C_FLASH)
  Relative segment, address: CODE 000082E5 - 000082E8 (0x4 bytes), align: 0
  Segment part 46.            Intra module refs:   __Constant_1e0000

    *************************************************************************

  FILE NAME : D:\ZbNode\Proj\ZbNode\ide\Release\Obj\BC95.r51
  PROGRAM MODULE, NAME : BC95

  SEGMENTS IN THE MODULE
  ======================
<XDATA_ROM_C> 1 (was XDATA_ROM_C)
  Relative segment, address: CONST 00008000 - 000080B3 (0xb4 bytes), align: 0
  Segment part 42.            Intra module refs:   BC95InitAT
           ENTRY                   ADDRESS         REF BY
           =====                   =======         ======
           init_at                 00008000 
    -------------------------------------------------------------------------
<XDATA_ROM_C> 1 (was XDATA_ROM_C)
  Relative segment, address: CONST 0000813F - 00008159 (0x1b bytes), align: 0
  Segment part 43.            Intra module refs:   BC95PollingAT
           ENTRY                   ADDRESS         REF BY
           =====                   =======         ======
           polling_at              0000813F 
    -------------------------------------------------------------------------
XDATA_Z
  Relative segment, address: XDATA 00000385 - 00000388 (0x4 bytes), align: 0
  Segment part 44.            Intra module refs:   BC95InitAT
                                                   BC95PollingAT
           LOCAL                   ADDRESS         
           =====                   =======         
           atdelay                 00000385 
    -------------------------------------------------------------------------
XDATA_Z
  Relative segment, address: XDATA 00000389 - 0000038A (0x2 bytes), align: 0
  Segment part 45.            Intra module refs:   ?Subroutine10
                                                   ?Subroutine4
                                                   BC95InitAT
                                                   BC95PollingAT
           LOCAL                   ADDRESS         
           =====                   =======         
           retry                   00000389 
    -------------------------------------------------------------------------
<BANKED_CODE,BANK_RELAYS..> 1 (was BANKED_CODE)
  Relative segment, address: CODE 00007324 - 00007528 (0x205 bytes), align: 0
  Segment part 59.            Intra module refs:   BC95InitAT::?relay
           ENTRY                   ADDRESS         REF BY
           =====                   =======         ======
           BC95InitAT              00007324 
               calls direct
               XSTACK = 00000000 ( 00000018 )
               ISTACK = 00000000 ( 00000002 )
    -------------------------------------------------------------------------
<BANKED_CODE,BANK_RELAYS..> 1 (was BANKED_CODE)
  Relative segment, address: CODE 00007529 - 00007534 (0xc bytes), align: 0
  Segment part 61.            Intra module refs:   BC95InitAT
           LOCAL                   ADDRESS         
           =====                   =======         
           ?Subroutine13           00007529 
    -------------------------------------------------------------------------
<BANKED_CODE,BANK_RELAYS..> 1 (was BANKED_CODE)
  Relative segment, address: CODE 00007535 - 00007538 (0x4 bytes), align: 0
  Segment part 62.            Intra module refs:   BC95InitAT
           LOCAL                   ADDRESS         
           =====                   =======         
           ?Subroutine5            00007535 
    -------------------------------------------------------------------------
<BANKED_CODE,BANK_RELAYS..> 1 (was BANKED_CODE)
  Relative segment, address: CODE 00007539 - 00007549 (0x11 bytes), align: 0
  Segment part 63.            Intra module refs:   ?Subroutine1
                                                   ?Subroutine5
           LOCAL                   ADDRESS         
           =====                   =======         
           ?Subroutine17           00007539 
    -------------------------------------------------------------------------
XDATA_Z
  Relative segment, address: XDATA 0000038B - 0000038B (0x1 bytes), align: 0
  Segment part 46.            Intra module refs:   ?Subroutine13
                                                   BC95InitAT
           LOCAL                   ADDRESS         
           =====                   =======         
           BC95InitAT::init_step   0000038B 
    -------------------------------------------------------------------------
<BANKED_CODE,BANK_RELAYS..> 1 (was BANKED_CODE)
  Relative segment, address: CODE 0000754A - 0000789A (0x351 bytes), align: 0
  Segment part 64.            Intra module refs:   BC95PollingAT::?relay
           ENTRY                   ADDRESS         REF BY
           =====                   =======         ======
           BC95PollingAT           0000754A 
               calls direct
               XSTACK = 00000000 ( 00000018 )
               ISTACK = 00000000 ( 00000002 )
    -------------------------------------------------------------------------
<BANKED_CODE,BANK_RELAYS..> 1 (was BANKED_CODE)
  Relative segment, address: CODE 0000789B - 000078A4 (0xa bytes), align: 0
  Segment part 66.            Intra module refs:   BC95PollingAT
           LOCAL                   ADDRESS         
           =====                   =======         
           ?Subroutine16           0000789B 
    -------------------------------------------------------------------------
<BANKED_CODE,BANK_RELAYS..> 1 (was BANKED_CODE)
  Relative segment, address: CODE 000078A5 - 000078AF (0xb bytes), align: 0
  Segment part 67.            Intra module refs:   BC95InitAT
                                                   BC95PollingAT
           LOCAL                   ADDRESS         
           =====                   =======         
           ?Subroutine15           000078A5 
    -------------------------------------------------------------------------
<BANKED_CODE,BANK_RELAYS..> 1 (was BANKED_CODE)
  Relative segment, address: CODE 000078B0 - 000078B0 (0x1 bytes), align: 0
  Segment part 68.            Intra module refs:   BC95PollingAT
           LOCAL                   ADDRESS         
           =====                   =======         
           ?Subroutine14           000078B0 
    -------------------------------------------------------------------------
<BANKED_CODE,BANK_RELAYS..> 1 (was BANKED_CODE)
  Relative segment, address: CODE 000078B1 - 000078B8 (0x8 bytes), align: 0
  Segment part 69.            Intra module refs:   ?Subroutine14
                                                   BC95InitAT
                                                   BC95PollingAT
    -------------------------------------------------------------------------
<BANKED_CODE,BANK_RELAYS..> 1 (was BANKED_CODE)
  Relative segment, address: CODE 000078B9 - 000078C3 (0xb bytes), align: 0
  Segment part 70.            Intra module refs:   BC95InitAT
                                                   BC95PollingAT
           LOCAL                   ADDRESS         
           =====                   =======         
           ?Subroutine10           000078B9 
    -------------------------------------------------------------------------
<BANKED_CODE,BANK_RELAYS..> 1 (was BANKED_CODE)
  Relative segment, address: CODE 000078C4 - 000078D7 (0x14 bytes), align: 0
  Segment part 71.            Intra module refs:   BC95PollingAT
           LOCAL                   ADDRESS         
           =====                   =======         
           ?Subroutine9            000078C4 
    -------------------------------------------------------------------------
<BANKED_CODE,BANK_RELAYS..> 1 (was BANKED_CODE)
  Relative segment, address: CODE 000078D8 - 000078E4 (0xd bytes), align: 0
  Segment part 72.            Intra module refs:   BC95PollingAT
           LOCAL                   ADDRESS         
           =====                   =======         
           ?Subroutine8            000078D8 
    -------------------------------------------------------------------------
<BANKED_CODE,BANK_RELAYS..> 1 (was BANKED_CODE)
  Relative segment, address: CODE 000078E5 - 000078FB (0x17 bytes), align: 0
  Segment part 73.            Intra module refs:   BC95PollingAT
           LOCAL                   ADDRESS         
           =====                   =======         
           ?Subroutine4            000078E5 
    -------------------------------------------------------------------------
<BANKED_CODE,BANK_RELAYS..> 1 (was BANKED_CODE)
  Relative segment, address: CODE 000078FC - 00007901 (0x6 bytes), align: 0
  Segment part 74.            Intra module refs:   BC95InitAT
                                                   BC95PollingAT
           LOCAL                   ADDRESS         
           =====                   =======         
           ?Subroutine1            000078FC 
    -------------------------------------------------------------------------
XDATA_Z
  Relative segment, address: XDATA 0000038C - 0000038C (0x1 bytes), align: 0
  Segment part 47.            Intra module refs:   BC95PollingAT
           LOCAL                   ADDRESS         
           =====                   =======         
           BC95PollingAT::polling_step
                                   0000038C 
    -------------------------------------------------------------------------
<BANKED_CODE,BANK_RELAYS..> 1 (was BANKED_CODE)
  Relative segment, address: CODE 00007902 - 00007980 (0x7f bytes), align: 0
  Segment part 75.            Intra module refs:   BC95IoTHeaderAdd::?relay
           ENTRY                   ADDRESS         REF BY
           =====                   =======         ======
           BC95IoTHeaderAdd        00007902 
               calls direct
               XSTACK = 00000002 ( 00000012 )
               ISTACK = 00000000 ( 00000001 )
    -------------------------------------------------------------------------
<BANKED_CODE,BANK_RELAYS..> 1 (was BANKED_CODE)
  Relative segment, address: CODE 00007981 - 00007989 (0x9 bytes), align: 0
  Segment part 77.            Intra module refs:   ?Subroutine17
                                                   BC95IoTHeaderAdd
           LOCAL                   ADDRESS         
           =====                   =======         
           ?Subroutine20           00007981 
    -------------------------------------------------------------------------
<BANKED_CODE,BANK_RELAYS..> 1 (was BANKED_CODE)
  Relative segment, address: CODE 0000798A - 0000798E (0x5 bytes), align: 0
  Segment part 78.            Intra module refs:   BC95InitAT
                                                   BC95PollingAT
           LOCAL                   ADDRESS         
           =====                   =======         
           ?Subroutine0            0000798A 
    -------------------------------------------------------------------------
<BANKED_CODE,BANK_RELAYS..> 1 (was BANKED_CODE)
  Relative segment, address: CODE 0000798F - 00007993 (0x5 bytes), align: 0
  Segment part 79.            Intra module refs:   ?Subroutine0
                                                   BC95IoTHeaderAdd
    -------------------------------------------------------------------------
<BANKED_CODE,BANK_RELAYS..> 1 (was BANKED_CODE)
  Relative segment, address: CODE 00007994 - 00007C1C (0x289 bytes), align: 0
  Segment part 80.            Intra module refs:   BC95RxIndicationSearch::?relay
           ENTRY                   ADDRESS         REF BY
           =====                   =======         ======
           BC95RxIndicationSearch
                                   00007994 
               calls direct
               XSTACK = 00000000 ( 00000010 )
               ISTACK = 00000000 ( 00000001 )
    -------------------------------------------------------------------------
<BANKED_CODE,BANK_RELAYS..> 1 (was BANKED_CODE)
  Relative segment, address: CODE 00007C1D - 00007C29 (0xd bytes), align: 0
  Segment part 82.            Intra module refs:   BC95RxIndicationSearch
           LOCAL                   ADDRESS         
           =====                   =======         
           ?Subroutine12           00007C1D 
    -------------------------------------------------------------------------
<BANKED_CODE,BANK_RELAYS..> 1 (was BANKED_CODE)
  Relative segment, address: CODE 00007C2A - 00007C2C (0x3 bytes), align: 0
  Segment part 83.            Intra module refs:   BC95RxIndicationSearch
           LOCAL                   ADDRESS         
           =====                   =======         
           ?Subroutine11           00007C2A 
    -------------------------------------------------------------------------
<BANKED_CODE,BANK_RELAYS..> 1 (was BANKED_CODE)
  Relative segment, address: CODE 00007C2D - 00007C30 (0x4 bytes), align: 0
  Segment part 84.            Intra module refs:   ?Subroutine11
                                                   BC95PollingAT
                                                   BC95RxIndicationSearch
    -------------------------------------------------------------------------
<BANKED_CODE,BANK_RELAYS..> 1 (was BANKED_CODE)
  Relative segment, address: CODE 00007C31 - 00007C36 (0x6 bytes), align: 0
  Segment part 85.            Intra module refs:   ?Subroutine6
                                                   ?Subroutine8
                                                   Segment part 84
                                                   Segment part 90
           LOCAL                   ADDRESS         
           =====                   =======         
           ?Subroutine18           00007C31 
    -------------------------------------------------------------------------
<BANKED_CODE,BANK_RELAYS..> 1 (was BANKED_CODE)
  Relative segment, address: CODE 00007C37 - 00007C3A (0x4 bytes), align: 0
  Segment part 86.            Intra module refs:   BC95InitAT
                                                   BC95RxIndicationSearch
           LOCAL                   ADDRESS         
           =====                   =======         
           ?Subroutine7            00007C37 
    -------------------------------------------------------------------------
<BANKED_CODE,BANK_RELAYS..> 1 (was BANKED_CODE)
  Relative segment, address: CODE 00007C3B - 00007C44 (0xa bytes), align: 0
  Segment part 87.            Intra module refs:   ?Subroutine4
                                                   ?Subroutine7
           LOCAL                   ADDRESS         
           =====                   =======         
           ?Subroutine19           00007C3B 
    -------------------------------------------------------------------------
<BANKED_CODE,BANK_RELAYS..> 1 (was BANKED_CODE)
  Relative segment, address: CODE 00007C45 - 00007C56 (0x12 bytes), align: 0
  Segment part 88.            Intra module refs:   BC95RxIndicationSearch
           LOCAL                   ADDRESS         
           =====                   =======         
           ?Subroutine6            00007C45 
    -------------------------------------------------------------------------
<BANKED_CODE,BANK_RELAYS..> 1 (was BANKED_CODE)
  Relative segment, address: CODE 00007C57 - 00007C59 (0x3 bytes), align: 0
  Segment part 89.            Intra module refs:   BC95RxIndicationSearch
           LOCAL                   ADDRESS         
           =====                   =======         
           ?Subroutine3            00007C57 
    -------------------------------------------------------------------------
<BANKED_CODE,BANK_RELAYS..> 1 (was BANKED_CODE)
  Relative segment, address: CODE 00007C5A - 00007C5F (0x6 bytes), align: 0
  Segment part 90.            Intra module refs:   ?Subroutine3
                                                   BC95RxIndicationSearch
    -------------------------------------------------------------------------
<BANKED_CODE,BANK_RELAYS..> 1 (was BANKED_CODE)
  Relative segment, address: CODE 00007C60 - 00007C68 (0x9 bytes), align: 0
  Segment part 91.            Intra module refs:   BC95InitAT
                                                   BC95PollingAT
           LOCAL                   ADDRESS         
           =====                   =======         
           ?Subroutine2            00007C60 
    -------------------------------------------------------------------------
<BANKED_CODE,BANK_RELAYS..> 1 (was BANKED_CODE)
  Relative segment, address: CODE 00007C69 - 00007C6B (0x3 bytes), align: 0
  Segment part 92.            Intra module refs:   ?Subroutine2
                                                   BC95InitAT
                                                   BC95PollingAT
    -------------------------------------------------------------------------
<BANKED_CODE,BANK_RELAYS..> 1 (was BANKED_CODE)
  Relative segment, address: CODE 00007C6C - 00007C71 (0x6 bytes), align: 0
  Segment part 93.            Intra module refs:   BC95PollingAT
                                                   BC95RxIndicationSearch
                                                   Segment part 92
    -------------------------------------------------------------------------
XDATA_Z
  Relative segment, address: XDATA 0000038D - 0000038E (0x2 bytes), align: 0
  Segment part 48.            Intra module refs:   ?Subroutine3
                                                   ?Subroutine6
                                                   BC95RxIndicationSearch
           LOCAL                   ADDRESS         
           =====                   =======         
           BC95RxIndicationSearch::qird_cnt
                                   0000038D 
    -------------------------------------------------------------------------
XDATA_Z
  Relative segment, address: XDATA 0000038F - 00000390 (0x2 bytes), align: 0
  Segment part 49.            Intra module refs:   BC95RxIndicationSearch
           LOCAL                   ADDRESS         
           =====                   =======         
           BC95RxIndicationSearch::prx
                                   0000038F 
    -------------------------------------------------------------------------
XDATA_Z
  Relative segment, address: XDATA 00000391 - 00000392 (0x2 bytes), align: 0
  Segment part 50.            Intra module refs:   ?Subroutine11
                                                   BC95RxIndicationSearch
           LOCAL                   ADDRESS         
           =====                   =======         
           BC95RxIndicationSearch::rxLen
                                   00000391 
    -------------------------------------------------------------------------
XDATA_Z
  Relative segment, address: XDATA 00000393 - 00000394 (0x2 bytes), align: 0
  Segment part 51.            Intra module refs:   ?Subroutine12
                                                   BC95RxIndicationSearch
           LOCAL                   ADDRESS         
           =====                   =======         
           BC95RxIndicationSearch::rx_ascii_len
                                   00000393 
    -------------------------------------------------------------------------
<BANKED_CODE,BANK_RELAYS..> 1 (was BANK_RELAYS)
  Relative segment, address: CODE 000032C3 - 000032C8 (0x6 bytes), align: 0
  Segment part 60.
           ENTRY                   ADDRESS         REF BY
           =====                   =======         ======
           BC95InitAT::?relay      000032C3        netMngrTask (netMngr)
    -------------------------------------------------------------------------
<BANKED_CODE,BANK_RELAYS..> 1 (was BANK_RELAYS)
  Relative segment, address: CODE 000032BD - 000032C2 (0x6 bytes), align: 0
  Segment part 65.
           ENTRY                   ADDRESS         REF BY
           =====                   =======         ======
           BC95PollingAT::?relay   000032BD        netMngrTask (netMngr)
    -------------------------------------------------------------------------
<BANKED_CODE,BANK_RELAYS..> 1 (was BANK_RELAYS)
  Relative segment, address: CODE 000032B1 - 000032B6 (0x6 bytes), align: 0
  Segment part 76.
           ENTRY                   ADDRESS         REF BY
           =====                   =======         ======
           BC95IoTHeaderAdd::?relay
                                   000032B1        netSend (netMngr)
    -------------------------------------------------------------------------
<BANKED_CODE,BANK_RELAYS..> 1 (was BANK_RELAYS)
  Relative segment, address: CODE 000032A5 - 000032AA (0x6 bytes), align: 0
  Segment part 81.
           ENTRY                   ADDRESS         REF BY
           =====                   =======         ======
           BC95RxIndicationSearch::?relay
                                   000032A5        netMngrTask (netMngr)
    -------------------------------------------------------------------------
<XDATA_ROM_C> 1 (was XDATA_ROM_C)
  Relative segment, address: CONST 000082DB - 000082DF (0x5 bytes), align: 0
  Segment part 9.             Intra module refs:   init_at
    -------------------------------------------------------------------------
<XDATA_ROM_C> 1 (was XDATA_ROM_C)
  Relative segment, address: CONST 000082D4 - 000082DA (0x7 bytes), align: 0
  Segment part 10.            Intra module refs:   BC95PollingAT
                                                   init_at
                                                   polling_at
    -------------------------------------------------------------------------
<XDATA_ROM_C> 1 (was XDATA_ROM_C)
  Relative segment, address: CONST 00008228 - 00008234 (0xd bytes), align: 0
  Segment part 11.            Intra module refs:   init_at
    -------------------------------------------------------------------------
<XDATA_ROM_C> 1 (was XDATA_ROM_C)
  Relative segment, address: CONST 00008187 - 00008199 (0x13 bytes), align: 0
  Segment part 12.            Intra module refs:   init_at
    -------------------------------------------------------------------------
<XDATA_ROM_C> 1 (was XDATA_ROM_C)
  Relative segment, address: CONST 0000827E - 00008289 (0xc bytes), align: 0
  Segment part 13.            Intra module refs:   init_at
    -------------------------------------------------------------------------
<XDATA_ROM_C> 1 (was XDATA_ROM_C)
  Relative segment, address: CONST 000080B4 - 000080DD (0x2a bytes), align: 0
  Segment part 14.            Intra module refs:   init_at
    -------------------------------------------------------------------------
<XDATA_ROM_C> 1 (was XDATA_ROM_C)
  Relative segment, address: CONST 000080DE - 00008100 (0x23 bytes), align: 0
  Segment part 15.            Intra module refs:   init_at
    -------------------------------------------------------------------------
<XDATA_ROM_C> 1 (was XDATA_ROM_C)
  Relative segment, address: CONST 00008121 - 0000813E (0x1e bytes), align: 0
  Segment part 16.            Intra module refs:   init_at
    -------------------------------------------------------------------------
<XDATA_ROM_C> 1 (was XDATA_ROM_C)
  Relative segment, address: CONST 000082CB - 000082D3 (0x9 bytes), align: 0
  Segment part 17.            Intra module refs:   init_at
    -------------------------------------------------------------------------
<XDATA_ROM_C> 1 (was XDATA_ROM_C)
  Relative segment, address: CONST 000081F2 - 000081FF (0xe bytes), align: 0
  Segment part 18.            Intra module refs:   init_at
    -------------------------------------------------------------------------
<XDATA_ROM_C> 1 (was XDATA_ROM_C)
  Relative segment, address: CONST 0000824E - 00008259 (0xc bytes), align: 0
  Segment part 19.            Intra module refs:   init_at
    -------------------------------------------------------------------------
<XDATA_ROM_C> 1 (was XDATA_ROM_C)
  Relative segment, address: CONST 000081D1 - 000081E1 (0x11 bytes), align: 0
  Segment part 20.            Intra module refs:   init_at
    -------------------------------------------------------------------------
<XDATA_ROM_C> 1 (was XDATA_ROM_C)
  Relative segment, address: CONST 0000828A - 00008295 (0xc bytes), align: 0
  Segment part 21.            Intra module refs:   init_at
    -------------------------------------------------------------------------
<XDATA_ROM_C> 1 (was XDATA_ROM_C)
  Relative segment, address: CONST 000082A1 - 000082AB (0xb bytes), align: 0
  Segment part 22.            Intra module refs:   init_at
    -------------------------------------------------------------------------
<XDATA_ROM_C> 1 (was XDATA_ROM_C)
  Relative segment, address: CONST 000081AD - 000081BE (0x12 bytes), align: 0
  Segment part 23.            Intra module refs:   init_at
    -------------------------------------------------------------------------
<XDATA_ROM_C> 1 (was XDATA_ROM_C)
  Relative segment, address: CONST 0000821B - 00008227 (0xd bytes), align: 0
  Segment part 24.            Intra module refs:   init_at
    -------------------------------------------------------------------------
<XDATA_ROM_C> 1 (was XDATA_ROM_C)
  Relative segment, address: CONST 0000820E - 0000821A (0xd bytes), align: 0
  Segment part 25.            Intra module refs:   init_at
    -------------------------------------------------------------------------
<XDATA_ROM_C> 1 (was XDATA_ROM_C)
  Relative segment, address: CONST 00008266 - 00008271 (0xc bytes), align: 0
  Segment part 26.            Intra module refs:   init_at
    -------------------------------------------------------------------------
<XDATA_ROM_C> 1 (was XDATA_ROM_C)
  Relative segment, address: CONST 000081BF - 000081D0 (0x12 bytes), align: 0
  Segment part 27.            Intra module refs:   init_at
    -------------------------------------------------------------------------
<XDATA_ROM_C> 1 (was XDATA_ROM_C)
  Relative segment, address: CONST 00008235 - 00008241 (0xd bytes), align: 0
  Segment part 28.            Intra module refs:   init_at
    -------------------------------------------------------------------------
<XDATA_ROM_C> 1 (was XDATA_ROM_C)
  Relative segment, address: CONST 000082B7 - 000082C1 (0xb bytes), align: 0
  Segment part 29.            Intra module refs:   init_at
    -------------------------------------------------------------------------
<XDATA_ROM_C> 1 (was XDATA_ROM_C)
  Relative segment, address: CONST 00008101 - 00008120 (0x20 bytes), align: 0
  Segment part 30.            Intra module refs:   init_at
    -------------------------------------------------------------------------
<XDATA_ROM_C> 1 (was XDATA_ROM_C)
  Relative segment, address: CONST 000082C2 - 000082CA (0x9 bytes), align: 0
  Segment part 31.            Intra module refs:   init_at
                                                   polling_at
    -------------------------------------------------------------------------
<XDATA_ROM_C> 1 (was XDATA_ROM_C)
  Relative segment, address: CONST 0000819A - 000081AC (0x13 bytes), align: 0
  Segment part 32.            Intra module refs:   init_at
                                                   polling_at
    -------------------------------------------------------------------------
<XDATA_ROM_C> 1 (was XDATA_ROM_C)
  Relative segment, address: CONST 0000815A - 00008172 (0x19 bytes), align: 0
  Segment part 33.            Intra module refs:   init_at
    -------------------------------------------------------------------------
<XDATA_ROM_C> 1 (was XDATA_ROM_C)
  Relative segment, address: CONST 00008296 - 000082A0 (0xb bytes), align: 0
  Segment part 34.            Intra module refs:   init_at
    -------------------------------------------------------------------------
<XDATA_ROM_C> 1 (was XDATA_ROM_C)
  Relative segment, address: CONST 00008173 - 00008186 (0x14 bytes), align: 0
  Segment part 35.            Intra module refs:   init_at
    -------------------------------------------------------------------------
<XDATA_ROM_C> 1 (was XDATA_ROM_C)
  Relative segment, address: CONST 0000825A - 00008265 (0xc bytes), align: 0
  Segment part 36.            Intra module refs:   init_at
    -------------------------------------------------------------------------
<XDATA_ROM_C> 1 (was XDATA_ROM_C)
  Relative segment, address: CONST 00008272 - 0000827D (0xc bytes), align: 0
  Segment part 37.            Intra module refs:   init_at
    -------------------------------------------------------------------------
<XDATA_ROM_C> 1 (was XDATA_ROM_C)
  Relative segment, address: CONST 000081E2 - 000081F1 (0x10 bytes), align: 0
  Segment part 38.            Intra module refs:   polling_at
    -------------------------------------------------------------------------
<XDATA_ROM_C> 1 (was XDATA_ROM_C)
  Relative segment, address: CONST 000082AC - 000082B6 (0xb bytes), align: 0
  Segment part 39.            Intra module refs:   BC95PollingAT
                                                   polling_at
    -------------------------------------------------------------------------
<XDATA_ROM_C> 1 (was XDATA_ROM_C)
  Relative segment, address: CONST 00008242 - 0000824D (0xc bytes), align: 0
  Segment part 40.            Intra module refs:   BC95PollingAT
    -------------------------------------------------------------------------
<XDATA_ROM_C> 1 (was XDATA_ROM_C)
  Relative segment, address: CONST 00008200 - 0000820D (0xe bytes), align: 0
  Segment part 41.            Intra module refs:   BC95RxIndicationSearch
    -------------------------------------------------------------------------
<XDATA_ROM_C> 1 (was XDATA_ROM_C)
  Relative segment, address: CONST 000082F5 - 000082F8 (0x4 bytes), align: 0
  Segment part 52.            Intra module refs:   BC95InitAT
           ENTRY                   ADDRESS         REF BY
           =====                   =======         ======
           __Constant_e2e          000082F5 
    -------------------------------------------------------------------------
<XDATA_ROM_C> 1 (was XDATA_ROM_C)
  Relative segment, address: CONST 000082F9 - 000082FC (0x4 bytes), align: 0
  Segment part 53.            Intra module refs:   BC95InitAT
                                                   BC95PollingAT
           ENTRY                   ADDRESS         REF BY
           =====                   =======         ======
           __Constant_80000000     000082F9 
    -------------------------------------------------------------------------
<XDATA_ROM_C> 1 (was XDATA_ROM_C)
  Relative segment, address: CONST 000082FD - 00008300 (0x4 bytes), align: 0
  Segment part 54.            Intra module refs:   BC95InitAT
           ENTRY                   ADDRESS         REF BY
           =====                   =======         ======
           __Constant_50000        000082FD 
    -------------------------------------------------------------------------
<XDATA_ROM_C> 1 (was XDATA_ROM_C)
  Relative segment, address: CONST 00008301 - 00008304 (0x4 bytes), align: 0
  Segment part 55.            Intra module refs:   BC95InitAT
           ENTRY                   ADDRESS         REF BY
           =====                   =======         ======
           __Constant_18000        00008301 
    -------------------------------------------------------------------------
<XDATA_ROM_C> 1 (was XDATA_ROM_C)
  Relative segment, address: CONST 00008305 - 00008308 (0x4 bytes), align: 0
  Segment part 56.            Intra module refs:   BC95PollingAT
           ENTRY                   ADDRESS         REF BY
           =====                   =======         ======
           __Constant_f0000        00008305 
    -------------------------------------------------------------------------
<XDATA_ROM_C> 1 (was XDATA_ROM_C)
  Relative segment, address: CONST 00008309 - 0000830C (0x4 bytes), align: 0
  Segment part 57.            Intra module refs:   BC95PollingAT
           ENTRY                   ADDRESS         REF BY
           =====                   =======         ======
           __Constant_10000        00008309 
    -------------------------------------------------------------------------
<XDATA_ROM_C> 1 (was XDATA_ROM_C)
  Relative segment, address: CONST 0000830D - 00008310 (0x4 bytes), align: 0
  Segment part 58.            Intra module refs:   BC95PollingAT
                                                   sMacTask (sMac)
           ENTRY                   ADDRESS         REF BY
           =====                   =======         ======
           __Constant_8000         0000830D 
    -------------------------------------------------------------------------
<BANKED_CODE,XDATA_ROM_C_FLASH> 1 (was XDATA_ROM_C_FLASH)
  Relative segment, address: CODE 00008000 - 000080B3 (0xb4 bytes), align: 0
  Segment part 94.            Intra module refs:   init_at
    -------------------------------------------------------------------------
<BANKED_CODE,XDATA_ROM_C_FLASH> 1 (was XDATA_ROM_C_FLASH)
  Relative segment, address: CODE 0000813F - 00008159 (0x1b bytes), align: 0
  Segment part 95.            Intra module refs:   polling_at
    -------------------------------------------------------------------------
<BANKED_CODE,XDATA_ROM_C_FLASH> 1 (was XDATA_ROM_C_FLASH)
  Relative segment, address: CODE 000082DB - 000082DF (0x5 bytes), align: 0
  Segment part 96.            Intra module refs:   Segment part 9
    -------------------------------------------------------------------------
<BANKED_CODE,XDATA_ROM_C_FLASH> 1 (was XDATA_ROM_C_FLASH)
  Relative segment, address: CODE 000082D4 - 000082DA (0x7 bytes), align: 0
  Segment part 97.            Intra module refs:   Segment part 10
    -------------------------------------------------------------------------
<BANKED_CODE,XDATA_ROM_C_FLASH> 1 (was XDATA_ROM_C_FLASH)
  Relative segment, address: CODE 00008228 - 00008234 (0xd bytes), align: 0
  Segment part 98.            Intra module refs:   Segment part 11
    -------------------------------------------------------------------------
<BANKED_CODE,XDATA_ROM_C_FLASH> 1 (was XDATA_ROM_C_FLASH)
  Relative segment, address: CODE 00008187 - 00008199 (0x13 bytes), align: 0
  Segment part 99.            Intra module refs:   Segment part 12
    -------------------------------------------------------------------------
<BANKED_CODE,XDATA_ROM_C_FLASH> 1 (was XDATA_ROM_C_FLASH)
  Relative segment, address: CODE 0000827E - 00008289 (0xc bytes), align: 0
  Segment part 100.           Intra module refs:   Segment part 13
    -------------------------------------------------------------------------
<BANKED_CODE,XDATA_ROM_C_FLASH> 1 (was XDATA_ROM_C_FLASH)
  Relative segment, address: CODE 000080B4 - 000080DD (0x2a bytes), align: 0
  Segment part 101.           Intra module refs:   Segment part 14
    -------------------------------------------------------------------------
<BANKED_CODE,XDATA_ROM_C_FLASH> 1 (was XDATA_ROM_C_FLASH)
  Relative segment, address: CODE 000080DE - 00008100 (0x23 bytes), align: 0
  Segment part 102.           Intra module refs:   Segment part 15
    -------------------------------------------------------------------------
<BANKED_CODE,XDATA_ROM_C_FLASH> 1 (was XDATA_ROM_C_FLASH)
  Relative segment, address: CODE 00008121 - 0000813E (0x1e bytes), align: 0
  Segment part 103.           Intra module refs:   Segment part 16
    -------------------------------------------------------------------------
<BANKED_CODE,XDATA_ROM_C_FLASH> 1 (was XDATA_ROM_C_FLASH)
  Relative segment, address: CODE 000082CB - 000082D3 (0x9 bytes), align: 0
  Segment part 104.           Intra module refs:   Segment part 17
    -------------------------------------------------------------------------
<BANKED_CODE,XDATA_ROM_C_FLASH> 1 (was XDATA_ROM_C_FLASH)
  Relative segment, address: CODE 000081F2 - 000081FF (0xe bytes), align: 0
  Segment part 105.           Intra module refs:   Segment part 18
    -------------------------------------------------------------------------
<BANKED_CODE,XDATA_ROM_C_FLASH> 1 (was XDATA_ROM_C_FLASH)
  Relative segment, address: CODE 0000824E - 00008259 (0xc bytes), align: 0
  Segment part 106.           Intra module refs:   Segment part 19
    -------------------------------------------------------------------------
<BANKED_CODE,XDATA_ROM_C_FLASH> 1 (was XDATA_ROM_C_FLASH)
  Relative segment, address: CODE 000081D1 - 000081E1 (0x11 bytes), align: 0
  Segment part 107.           Intra module refs:   Segment part 20
    -------------------------------------------------------------------------
<BANKED_CODE,XDATA_ROM_C_FLASH> 1 (was XDATA_ROM_C_FLASH)
  Relative segment, address: CODE 0000828A - 00008295 (0xc bytes), align: 0
  Segment part 108.           Intra module refs:   Segment part 21
    -------------------------------------------------------------------------
<BANKED_CODE,XDATA_ROM_C_FLASH> 1 (was XDATA_ROM_C_FLASH)
  Relative segment, address: CODE 000082A1 - 000082AB (0xb bytes), align: 0
  Segment part 109.           Intra module refs:   Segment part 22
    -------------------------------------------------------------------------
<BANKED_CODE,XDATA_ROM_C_FLASH> 1 (was XDATA_ROM_C_FLASH)
  Relative segment, address: CODE 000081AD - 000081BE (0x12 bytes), align: 0
  Segment part 110.           Intra module refs:   Segment part 23
    -------------------------------------------------------------------------
<BANKED_CODE,XDATA_ROM_C_FLASH> 1 (was XDATA_ROM_C_FLASH)
  Relative segment, address: CODE 0000821B - 00008227 (0xd bytes), align: 0
  Segment part 111.           Intra module refs:   Segment part 24
    -------------------------------------------------------------------------
<BANKED_CODE,XDATA_ROM_C_FLASH> 1 (was XDATA_ROM_C_FLASH)
  Relative segment, address: CODE 0000820E - 0000821A (0xd bytes), align: 0
  Segment part 112.           Intra module refs:   Segment part 25
    -------------------------------------------------------------------------
<BANKED_CODE,XDATA_ROM_C_FLASH> 1 (was XDATA_ROM_C_FLASH)
  Relative segment, address: CODE 00008266 - 00008271 (0xc bytes), align: 0
  Segment part 113.           Intra module refs:   Segment part 26
    -------------------------------------------------------------------------
<BANKED_CODE,XDATA_ROM_C_FLASH> 1 (was XDATA_ROM_C_FLASH)
  Relative segment, address: CODE 000081BF - 000081D0 (0x12 bytes), align: 0
  Segment part 114.           Intra module refs:   Segment part 27
    -------------------------------------------------------------------------
<BANKED_CODE,XDATA_ROM_C_FLASH> 1 (was XDATA_ROM_C_FLASH)
  Relative segment, address: CODE 00008235 - 00008241 (0xd bytes), align: 0
  Segment part 115.           Intra module refs:   Segment part 28
    -------------------------------------------------------------------------
<BANKED_CODE,XDATA_ROM_C_FLASH> 1 (was XDATA_ROM_C_FLASH)
  Relative segment, address: CODE 000082B7 - 000082C1 (0xb bytes), align: 0
  Segment part 116.           Intra module refs:   Segment part 29
    -------------------------------------------------------------------------
<BANKED_CODE,XDATA_ROM_C_FLASH> 1 (was XDATA_ROM_C_FLASH)
  Relative segment, address: CODE 00008101 - 00008120 (0x20 bytes), align: 0
  Segment part 117.           Intra module refs:   Segment part 30
    -------------------------------------------------------------------------
<BANKED_CODE,XDATA_ROM_C_FLASH> 1 (was XDATA_ROM_C_FLASH)
  Relative segment, address: CODE 000082C2 - 000082CA (0x9 bytes), align: 0
  Segment part 118.           Intra module refs:   Segment part 31
    -------------------------------------------------------------------------
<BANKED_CODE,XDATA_ROM_C_FLASH> 1 (was XDATA_ROM_C_FLASH)
  Relative segment, address: CODE 0000819A - 000081AC (0x13 bytes), align: 0
  Segment part 119.           Intra module refs:   Segment part 32
    -------------------------------------------------------------------------
<BANKED_CODE,XDATA_ROM_C_FLASH> 1 (was XDATA_ROM_C_FLASH)
  Relative segment, address: CODE 0000815A - 00008172 (0x19 bytes), align: 0
  Segment part 120.           Intra module refs:   Segment part 33
    -------------------------------------------------------------------------
<BANKED_CODE,XDATA_ROM_C_FLASH> 1 (was XDATA_ROM_C_FLASH)
  Relative segment, address: CODE 00008296 - 000082A0 (0xb bytes), align: 0
  Segment part 121.           Intra module refs:   Segment part 34
    -------------------------------------------------------------------------
<BANKED_CODE,XDATA_ROM_C_FLASH> 1 (was XDATA_ROM_C_FLASH)
  Relative segment, address: CODE 00008173 - 00008186 (0x14 bytes), align: 0
  Segment part 122.           Intra module refs:   Segment part 35
    -------------------------------------------------------------------------
<BANKED_CODE,XDATA_ROM_C_FLASH> 1 (was XDATA_ROM_C_FLASH)
  Relative segment, address: CODE 0000825A - 00008265 (0xc bytes), align: 0
  Segment part 123.           Intra module refs:   Segment part 36
    -------------------------------------------------------------------------
<BANKED_CODE,XDATA_ROM_C_FLASH> 1 (was XDATA_ROM_C_FLASH)
  Relative segment, address: CODE 00008272 - 0000827D (0xc bytes), align: 0
  Segment part 124.           Intra module refs:   Segment part 37
    -------------------------------------------------------------------------
<BANKED_CODE,XDATA_ROM_C_FLASH> 1 (was XDATA_ROM_C_FLASH)
  Relative segment, address: CODE 000081E2 - 000081F1 (0x10 bytes), align: 0
  Segment part 125.           Intra module refs:   Segment part 38
    -------------------------------------------------------------------------
<BANKED_CODE,XDATA_ROM_C_FLASH> 1 (was XDATA_ROM_C_FLASH)
  Relative segment, address: CODE 000082AC - 000082B6 (0xb bytes), align: 0
  Segment part 126.           Intra module refs:   Segment part 39
    -------------------------------------------------------------------------
<BANKED_CODE,XDATA_ROM_C_FLASH> 1 (was XDATA_ROM_C_FLASH)
  Relative segment, address: CODE 00008242 - 0000824D (0xc bytes), align: 0
  Segment part 127.           Intra module refs:   Segment part 40
    -------------------------------------------------------------------------
<BANKED_CODE,XDATA_ROM_C_FLASH> 1 (was XDATA_ROM_C_FLASH)
  Relative segment, address: CODE 00008200 - 0000820D (0xe bytes), align: 0
  Segment part 128.           Intra module refs:   Segment part 41
    -------------------------------------------------------------------------
<BANKED_CODE,XDATA_ROM_C_FLASH> 1 (was XDATA_ROM_C_FLASH)
  Relative segment, address: CODE 000082F5 - 000082F8 (0x4 bytes), align: 0
  Segment part 129.           Intra module refs:   __Constant_e2e
    -------------------------------------------------------------------------
<BANKED_CODE,XDATA_ROM_C_FLASH> 1 (was XDATA_ROM_C_FLASH)
  Relative segment, address: CODE 000082F9 - 000082FC (0x4 bytes), align: 0
  Segment part 130.           Intra module refs:   __Constant_80000000
    -------------------------------------------------------------------------
<BANKED_CODE,XDATA_ROM_C_FLASH> 1 (was XDATA_ROM_C_FLASH)
  Relative segment, address: CODE 000082FD - 00008300 (0x4 bytes), align: 0
  Segment part 131.           Intra module refs:   __Constant_50000
    -------------------------------------------------------------------------
<BANKED_CODE,XDATA_ROM_C_FLASH> 1 (was XDATA_ROM_C_FLASH)
  Relative segment, address: CODE 00008301 - 00008304 (0x4 bytes), align: 0
  Segment part 132.           Intra module refs:   __Constant_18000
    -------------------------------------------------------------------------
<BANKED_CODE,XDATA_ROM_C_FLASH> 1 (was XDATA_ROM_C_FLASH)
  Relative segment, address: CODE 00008305 - 00008308 (0x4 bytes), align: 0
  Segment part 133.           Intra module refs:   __Constant_f0000
    -------------------------------------------------------------------------
<BANKED_CODE,XDATA_ROM_C_FLASH> 1 (was XDATA_ROM_C_FLASH)
  Relative segment, address: CODE 00008309 - 0000830C (0x4 bytes), align: 0
  Segment part 134.           Intra module refs:   __Constant_10000
    -------------------------------------------------------------------------
<BANKED_CODE,XDATA_ROM_C_FLASH> 1 (was XDATA_ROM_C_FLASH)
  Relative segment, address: CODE 0000830D - 00008310 (0x4 bytes), align: 0
  Segment part 135.           Intra module refs:   __Constant_8000

    *************************************************************************

  FILE NAME : D:\ZbNode\Proj\ZbNode\ide\Release\Obj\BosMem.r51
  PROGRAM MODULE, NAME : BosMem

  SEGMENTS IN THE MODULE
  ======================
SFR_AN
  Relative segment, address: DATA 000000A8 - 000000A8 (0x1 bytes), align: 0
  Segment part 1. ROOT.       Intra module refs:   BosEventSend (kernel)
                                                   BosMalloc
                                                   BosScheduler (kernel)
                                                   EnableInterrupts (hal_mcu)
                                                   HalFlashRead (hal_flash)
                                                   ST_ISR (hal_time)
                                                   SleepTimeCompSet (hal_time)
                                                   SysTimerDisable (sysTimer)
                                                   SysTimerStart (sysTimer)
                                                   SysTimerStop (sysTimer)
                                                   SysTimerTask (sysTimer)
                                                   TickGet (hal_time)
                                                   _BosFree
                                                   halRfDisableRxInterrupt (hal_rf)
                                                   halRfEnableRxInterrupt (hal_rf)
                                                   halRfInit (hal_rf)
                                                   halRfRxInterruptConfig (hal_rf)
                                                   halUartInit (hal_uart)
                                                   halUartRecv (hal_uart)
                                                   nvramInit (nvram)
                                                   rfErrIsr (hal_rf)
                                                   rfIsr (hal_rf)
                                                   sMacTask (sMac)
           ENTRY                   ADDRESS         REF BY
           =====                   =======         ======
           _A_IEN0                 000000A8 
           LOCAL                   ADDRESS         
           =====                   =======         
           IEN0                    000000A8 
    -------------------------------------------------------------------------
XDATA_Z
  Relative segment, address: XDATA 00000395 - 00000396 (0x2 bytes), align: 0
  Segment part 7.             Intra module refs:   ?Subroutine0
                                                   HeapInit
           LOCAL                   ADDRESS         
           =====                   =======         
           HeapBase                00000395 
    -------------------------------------------------------------------------
XDATA_Z
  Relative segment, address: XDATA 00000397 - 00000398 (0x2 bytes), align: 0
  Segment part 8.             Intra module refs:   ?Subroutine0
                                                   HeapInit
           LOCAL                   ADDRESS         
           =====                   =======         
           HeapSize                00000397 
    -------------------------------------------------------------------------
<BANKED_CODE,XDATA_ROM_C_FLASH> 1 (was BANKED_CODE)
  Relative segment, address: CODE 000092D4 - 00009324 (0x51 bytes), align: 0
  Segment part 9.             Intra module refs:   HeapInit::?relay
           ENTRY                   ADDRESS         REF BY
           =====                   =======         ======
           HeapInit                000092D4 
               ISTACK = 00000000 ( 00000002 )
    -------------------------------------------------------------------------
<BANKED_CODE,XDATA_ROM_C_FLASH> 1 (was BANKED_CODE)
  Relative segment, address: CODE 00009325 - 000093FA (0xd6 bytes), align: 0
  Segment part 11.            Intra module refs:   BosMalloc::?relay
           ENTRY                   ADDRESS         REF BY
           =====                   =======         ======
           BosMalloc               00009325 
               XSTACK = 00000000 ( 0000000B )
    -------------------------------------------------------------------------
<BANKED_CODE,XDATA_ROM_C_FLASH> 1 (was BANKED_CODE)
  Relative segment, address: CODE 000093FB - 00009408 (0xe bytes), align: 0
  Segment part 13.            Intra module refs:   BosMalloc
           LOCAL                   ADDRESS         
           =====                   =======         
           ?Subroutine1            000093FB 
    -------------------------------------------------------------------------
<BANKED_CODE,XDATA_ROM_C_FLASH> 1 (was BANKED_CODE)
  Relative segment, address: CODE 00009409 - 00009529 (0x121 bytes), align: 0
  Segment part 14.            Intra module refs:   _BosFree::?relay
           ENTRY                   ADDRESS         REF BY
           =====                   =======         ======
           _BosFree                00009409 
               XSTACK = 00000000 ( 0000000E )
    -------------------------------------------------------------------------
<BANKED_CODE,XDATA_ROM_C_FLASH> 1 (was BANKED_CODE)
  Relative segment, address: CODE 0000952A - 00009534 (0xb bytes), align: 0
  Segment part 16.            Intra module refs:   BosMalloc
                                                   _BosFree
           LOCAL                   ADDRESS         
           =====                   =======         
           ?Subroutine3            0000952A 
    -------------------------------------------------------------------------
<BANKED_CODE,XDATA_ROM_C_FLASH> 1 (was BANKED_CODE)
  Relative segment, address: CODE 00009535 - 00009541 (0xd bytes), align: 0
  Segment part 17.            Intra module refs:   BosMalloc
                                                   _BosFree
           LOCAL                   ADDRESS         
           =====                   =======         
           ?Subroutine2            00009535 
    -------------------------------------------------------------------------
<BANKED_CODE,XDATA_ROM_C_FLASH> 1 (was BANKED_CODE)
  Relative segment, address: CODE 00009542 - 00009557 (0x16 bytes), align: 0
  Segment part 18.            Intra module refs:   BosMalloc
                                                   _BosFree
           LOCAL                   ADDRESS         
           =====                   =======         
           ?Subroutine0            00009542 
    -------------------------------------------------------------------------
<BANKED_CODE,XDATA_ROM_C_FLASH> 1 (was BANKED_CODE)
  Relative segment, address: CODE 00009558 - 00009579 (0x22 bytes), align: 0
  Segment part 19.            Intra module refs:   BosMemSet::?relay
           ENTRY                   ADDRESS         REF BY
           =====                   =======         ======
           BosMemSet               00009558 
               XSTACK = 00000000 ( 00000009 )
    -------------------------------------------------------------------------
<BANKED_CODE,BANK_RELAYS..> 1 (was BANK_RELAYS)
  Relative segment, address: CODE 0000329F - 000032A4 (0x6 bytes), align: 0
  Segment part 10.
           ENTRY                   ADDRESS         REF BY
           =====                   =======         ======
           HeapInit::?relay        0000329F        main (startup)
    -------------------------------------------------------------------------
<BANKED_CODE,BANK_RELAYS..> 1 (was BANK_RELAYS)
  Relative segment, address: CODE 00003299 - 0000329E (0x6 bytes), align: 0
  Segment part 12.
           ENTRY                   ADDRESS         REF BY
           =====                   =======         ======
           BosMalloc::?relay       00003299        AppTask (Application)
                                                   BC95IoTHeaderAdd (BC95)
                                                   BC95PollingAT (BC95)
                                                   BC95RxIndicationSearch (BC95)
                                                   PhyDataIndication (sMac)
                                                   PhySend (sMac)
                                                   atCmdStart (netMngr)
                                                   attributeGet (attribute)
                                                   netMngrInit (netMngr)
                                                   netSend (netMngr)
                                                   nvramBlockCheck (nvram)
                                                   nvramInit (nvram)
                                                   sMacCmdNetSearchReq (sMac)
                                                   sMacCmdNetSearchResp (sMac)
                                                   sMacCmdPingPong (sMac)
                                                   sMacInit (sMac)
                                                   sMacTask (sMac)
                                                   sNwkTask (sNwk)
    -------------------------------------------------------------------------
<BANKED_CODE,BANK_RELAYS..> 1 (was BANK_RELAYS)
  Relative segment, address: CODE 00003293 - 00003298 (0x6 bytes), align: 0
  Segment part 15.
           ENTRY                   ADDRESS         REF BY
           =====                   =======         ======
           _BosFree::?relay        00003293        AppTask (Application)
                                                   BC95PollingAT (BC95)
                                                   BC95RxIndicationSearch (BC95)
                                                   PhyDataIndication (sMac)
                                                   PhySend (sMac)
                                                   atCmdStop (netMngr)
                                                   attributeGet (attribute)
                                                   netRecv (netMngr)
                                                   netSend (netMngr)
                                                   nvramBlockCheck (nvram)
                                                   nvramInit (nvram)
                                                   sMacCmdNetSearchReq (sMac)
                                                   sMacCmdNetSearchResp (sMac)
                                                   sMacCmdPingPong (sMac)
                                                   sMacDataSendCallBack (sNwk)
                                                   sMacTask (sMac)
                                                   sNwkRecv (sNwk)
                                                   sNwkTask (sNwk)
    -------------------------------------------------------------------------
<BANKED_CODE,BANK_RELAYS..> 1 (was BANK_RELAYS)
  Relative segment, address: CODE 0000328D - 00003292 (0x6 bytes), align: 0
  Segment part 20.
           ENTRY                   ADDRESS         REF BY
           =====                   =======         ======
           BosMemSet::?relay       0000328D        sMacCmdNetSearchReq (sMac)
                                                   sMacCmdNetSearchResp (sMac)
                                                   sMacCmdPingPong (sMac)
                                                   sMacInit (sMac)
                                                   sMacTask (sMac)

    *************************************************************************

  FILE NAME : D:\ZbNode\Proj\ZbNode\ide\Release\Obj\att7053bu.r51
  PROGRAM MODULE, NAME : att7053bu

  SEGMENTS IN THE MODULE
  ======================
<BANKED_CODE,XDATA_ROM_C_FLASH> 1 (was BANKED_CODE)
  Relative segment, address: CODE 000097A7 - 00009860 (0xba bytes), align: 0
  Segment part 14.            Intra module refs:   att7053buInit::?relay
           ENTRY                   ADDRESS         REF BY
           =====                   =======         ======
           att7053buInit           000097A7 
               calls direct
               XSTACK = 00000000 ( 00000015 )
               ISTACK = 00000000 ( 00000002 )
    -------------------------------------------------------------------------
<BANKED_CODE,XDATA_ROM_C_FLASH> 1 (was BANKED_CODE)
  Relative segment, address: CODE 00009861 - 000098E3 (0x83 bytes), align: 0
  Segment part 16.            Intra module refs:   att7053buPowerGet::?relay
           ENTRY                   ADDRESS         REF BY
           =====                   =======         ======
           att7053buPowerGet       00009861 
               calls direct
               XSTACK = 00000000 ( 00000010 )
    -------------------------------------------------------------------------
<BANKED_CODE,XDATA_ROM_C_FLASH> 1 (was BANKED_CODE)
  Relative segment, address: CODE 000098E4 - 00009946 (0x63 bytes), align: 0
  Segment part 18.            Intra module refs:   att7053buRegRead::?relay
           LOCAL                   ADDRESS         
           =====                   =======         
           att7053buRegRead        000098E4 
               calls direct
               XSTACK = 00000015 ( 00000013 )
    -------------------------------------------------------------------------
<BANKED_CODE,XDATA_ROM_C_FLASH> 1 (was BANKED_CODE)
  Relative segment, address: CODE 00009947 - 0000994B (0x5 bytes), align: 0
  Segment part 20.            Intra module refs:   att7053buRegRead
                                                   att7053buRegWrite
           LOCAL                   ADDRESS         
           =====                   =======         
           ?Subroutine0            00009947 
    -------------------------------------------------------------------------
<BANKED_CODE,XDATA_ROM_C_FLASH> 1 (was BANKED_CODE)
  Relative segment, address: CODE 0000994C - 00009950 (0x5 bytes), align: 0
  Segment part 21.            Intra module refs:   ?Subroutine0
                                                   att7053buPowerGet
    -------------------------------------------------------------------------
<BANKED_CODE,XDATA_ROM_C_FLASH> 1 (was BANKED_CODE)
  Relative segment, address: CODE 00009951 - 00009981 (0x31 bytes), align: 0
  Segment part 22.            Intra module refs:   att7053buRegWrite::?relay
           LOCAL                   ADDRESS         
           =====                   =======         
           att7053buRegWrite       00009951 
               calls direct
               XSTACK = 00000015 ( 00000013 )
               ISTACK = 00000000 ( 00000001 )
    -------------------------------------------------------------------------
<XDATA_ROM_C> 1 (was XDATA_ROM_C)
  Relative segment, address: CONST 00008311 - 00008314 (0x4 bytes), align: 0
  Segment part 6.             Intra module refs:   att7053buInit
           ENTRY                   ADDRESS         REF BY
           =====                   =======         ======
           __Constant_7053b0       00008311 
    -------------------------------------------------------------------------
<XDATA_ROM_C> 1 (was XDATA_ROM_C)
  Relative segment, address: CONST 00008315 - 00008318 (0x4 bytes), align: 0
  Segment part 7.             Intra module refs:   att7053buInit
           ENTRY                   ADDRESS         REF BY
           =====                   =======         ======
           __Constant_bc           00008315 
    -------------------------------------------------------------------------
<XDATA_ROM_C> 1 (was XDATA_ROM_C)
  Relative segment, address: CONST 00008319 - 0000831C (0x4 bytes), align: 0
  Segment part 8.             Intra module refs:   att7053buInit
           ENTRY                   ADDRESS         REF BY
           =====                   =======         ======
           __Constant_2004         00008319 
    -------------------------------------------------------------------------
<XDATA_ROM_C> 1 (was XDATA_ROM_C)
  Relative segment, address: CONST 0000831D - 00008320 (0x4 bytes), align: 0
  Segment part 9.             Intra module refs:   att7053buPowerGet
           ENTRY                   ADDRESS         REF BY
           =====                   =======         ======
           __Constant_800000       0000831D 
    -------------------------------------------------------------------------
<XDATA_ROM_C> 1 (was XDATA_ROM_C)
  Relative segment, address: CONST 00008321 - 00008324 (0x4 bytes), align: 0
  Segment part 10.            Intra module refs:   att7053buPowerGet
           ENTRY                   ADDRESS         REF BY
           =====                   =======         ======
           __Constant_ff000000     00008321 
    -------------------------------------------------------------------------
<XDATA_ROM_C> 1 (was XDATA_ROM_C)
  Relative segment, address: CONST 00008325 - 00008328 (0x4 bytes), align: 0
  Segment part 11.            Intra module refs:   _large_write (?largewr)
                                                   att7053buPowerGet
                                                   float_conversion (?largewr)
           ENTRY                   ADDRESS         REF BY
           =====                   =======         ======
           __Constant_0            00008325 
    -------------------------------------------------------------------------
<XDATA_ROM_C> 1 (was XDATA_ROM_C)
  Relative segment, address: CONST 00008329 - 0000832C (0x4 bytes), align: 0
  Segment part 12.            Intra module refs:   att7053buPowerGet
           ENTRY                   ADDRESS         REF BY
           =====                   =======         ======
           __Constant_3c318b3d     00008329 
    -------------------------------------------------------------------------
<XDATA_ROM_C> 1 (was XDATA_ROM_C)
  Relative segment, address: CONST 0000832D - 00008330 (0x4 bytes), align: 0
  Segment part 13.            Intra module refs:   att7053buPowerGet
           ENTRY                   ADDRESS         REF BY
           =====                   =======         ======
           __Constant_3f000000     0000832D 
    -------------------------------------------------------------------------
<BANKED_CODE,BANK_RELAYS..> 1 (was BANK_RELAYS)
  Relative segment, address: CODE 00003287 - 0000328C (0x6 bytes), align: 0
  Segment part 15.
           ENTRY                   ADDRESS         REF BY
           =====                   =======         ======
           att7053buInit::?relay   00003287        ApplicationInit (Application)
    -------------------------------------------------------------------------
<BANKED_CODE,BANK_RELAYS..> 1 (was BANK_RELAYS)
  Relative segment, address: CODE 00003281 - 00003286 (0x6 bytes), align: 0
  Segment part 17.
           ENTRY                   ADDRESS         REF BY
           =====                   =======         ======
           att7053buPowerGet::?relay
                                   00003281        AppTask (Application)
    -------------------------------------------------------------------------
<BANKED_CODE,BANK_RELAYS..> 1 (was BANK_RELAYS)
  Relative segment, address: CODE 00003245 - 0000324A (0x6 bytes), align: 0
  Segment part 19.            Intra module refs:   att7053buInit
                                                   att7053buPowerGet
           LOCAL                   ADDRESS         
           =====                   =======         
           att7053buRegRead::?relay
                                   00003245 
    -------------------------------------------------------------------------
<BANKED_CODE,BANK_RELAYS..> 1 (was BANK_RELAYS)
  Relative segment, address: CODE 0000323F - 00003244 (0x6 bytes), align: 0
  Segment part 23.            Intra module refs:   att7053buInit
           LOCAL                   ADDRESS         
           =====                   =======         
           att7053buRegWrite::?relay
                                   0000323F 
    -------------------------------------------------------------------------
<BANKED_CODE,XDATA_ROM_C_FLASH> 1 (was XDATA_ROM_C_FLASH)
  Relative segment, address: CODE 00008311 - 00008314 (0x4 bytes), align: 0
  Segment part 24.            Intra module refs:   __Constant_7053b0
    -------------------------------------------------------------------------
<BANKED_CODE,XDATA_ROM_C_FLASH> 1 (was XDATA_ROM_C_FLASH)
  Relative segment, address: CODE 00008315 - 00008318 (0x4 bytes), align: 0
  Segment part 25.            Intra module refs:   __Constant_bc
    -------------------------------------------------------------------------
<BANKED_CODE,XDATA_ROM_C_FLASH> 1 (was XDATA_ROM_C_FLASH)
  Relative segment, address: CODE 00008319 - 0000831C (0x4 bytes), align: 0
  Segment part 26.            Intra module refs:   __Constant_2004
    -------------------------------------------------------------------------
<BANKED_CODE,XDATA_ROM_C_FLASH> 1 (was XDATA_ROM_C_FLASH)
  Relative segment, address: CODE 0000831D - 00008320 (0x4 bytes), align: 0
  Segment part 27.            Intra module refs:   __Constant_800000
    -------------------------------------------------------------------------
<BANKED_CODE,XDATA_ROM_C_FLASH> 1 (was XDATA_ROM_C_FLASH)
  Relative segment, address: CODE 00008321 - 00008324 (0x4 bytes), align: 0
  Segment part 28.            Intra module refs:   __Constant_ff000000
    -------------------------------------------------------------------------
<BANKED_CODE,XDATA_ROM_C_FLASH> 1 (was XDATA_ROM_C_FLASH)
  Relative segment, address: CODE 00008325 - 00008328 (0x4 bytes), align: 0
  Segment part 29.            Intra module refs:   __Constant_0
    -------------------------------------------------------------------------
<BANKED_CODE,XDATA_ROM_C_FLASH> 1 (was XDATA_ROM_C_FLASH)
  Relative segment, address: CODE 00008329 - 0000832C (0x4 bytes), align: 0
  Segment part 30.            Intra module refs:   __Constant_3c318b3d
    -------------------------------------------------------------------------
<BANKED_CODE,XDATA_ROM_C_FLASH> 1 (was XDATA_ROM_C_FLASH)
  Relative segment, address: CODE 0000832D - 00008330 (0x4 bytes), align: 0
  Segment part 31.            Intra module refs:   __Constant_3f000000

    *************************************************************************

  FILE NAME : D:\ZbNode\Proj\ZbNode\ide\Release\Obj\attribute.r51
  PROGRAM MODULE, NAME : attribute

  SEGMENTS IN THE MODULE
  ======================
<BANKED_CODE,XDATA_ROM_C_FLASH> 1 (was BANKED_CODE)
  Relative segment, address: CODE 00009CB9 - 00009E50 (0x198 bytes), align: 0
  Segment part 10.            Intra module refs:   attributeGet::?relay
           ENTRY                   ADDRESS         REF BY
           =====                   =======         ======
           attributeGet            00009CB9 
               calls direct
               XSTACK = 00000000 ( 0000001A )
               ISTACK = 00000000 ( 00000001 )
    -------------------------------------------------------------------------
<BANKED_CODE,BANK_RELAYS..> 1 (was BANK_RELAYS)
  Relative segment, address: CODE 00003239 - 0000323E (0x6 bytes), align: 0
  Segment part 11.
           ENTRY                   ADDRESS         REF BY
           =====                   =======         ======
           attributeGet::?relay    00003239        AppTask (Application)
    -------------------------------------------------------------------------
<XDATA_ROM_C> 1 (was XDATA_ROM_C)
  Relative segment, address: CONST 00008331 - 00008334 (0x4 bytes), align: 0
  Segment part 6.             Intra module refs:   attributeGet
    -------------------------------------------------------------------------
<XDATA_ROM_C> 1 (was XDATA_ROM_C)
  Relative segment, address: CONST 00008335 - 00008338 (0x4 bytes), align: 0
  Segment part 8.             Intra module refs:   attributeGet
           ENTRY                   ADDRESS         REF BY
           =====                   =======         ======
           __Constant_38805        00008335 
    -------------------------------------------------------------------------
<BANKED_CODE,XDATA_ROM_C_FLASH> 1 (was XDATA_ROM_C_FLASH)
  Relative segment, address: CODE 00008331 - 00008334 (0x4 bytes), align: 0
  Segment part 16.            Intra module refs:   Segment part 6
    -------------------------------------------------------------------------
<BANKED_CODE,XDATA_ROM_C_FLASH> 1 (was XDATA_ROM_C_FLASH)
  Relative segment, address: CODE 00008335 - 00008338 (0x4 bytes), align: 0
  Segment part 17.            Intra module refs:   __Constant_38805

    *************************************************************************

  FILE NAME : D:\ZbNode\Proj\ZbNode\ide\Release\Obj\board.r51
  PROGRAM MODULE, NAME : board

  SEGMENTS IN THE MODULE
  ======================
<BANKED_CODE,XDATA_ROM_C_FLASH> 1 (was BANKED_CODE)
  Relative segment, address: CODE 0000A601 - 0000A611 (0x11 bytes), align: 0
  Segment part 6.             Intra module refs:   halBoardInit::?relay
           ENTRY                   ADDRESS         REF BY
           =====                   =======         ======
           halBoardInit            0000A601 
               calls direct
               ISTACK = 00000000 ( 00000002 )
    -------------------------------------------------------------------------
<BANKED_CODE,XDATA_ROM_C_FLASH> 1 (was BANKED_CODE)
  Relative segment, address: CODE 0000A612 - 0000A614 (0x3 bytes), align: 0
  Segment part 8.             Intra module refs:   consoleInit::?relay
           ENTRY                   ADDRESS         REF BY
           =====                   =======         ======
           consoleInit             0000A612 
    -------------------------------------------------------------------------
<BANKED_CODE,BANK_RELAYS..> 1 (was BANK_RELAYS)
  Relative segment, address: CODE 00003233 - 00003238 (0x6 bytes), align: 0
  Segment part 7.
           ENTRY                   ADDRESS         REF BY
           =====                   =======         ======
           halBoardInit::?relay    00003233        main (startup)
    -------------------------------------------------------------------------
<BANKED_CODE,BANK_RELAYS..> 1 (was BANK_RELAYS)
  Relative segment, address: CODE 0000322D - 00003232 (0x6 bytes), align: 0
  Segment part 9.
           ENTRY                   ADDRESS         REF BY
           =====                   =======         ======
           consoleInit::?relay     0000322D        main (startup)

    *************************************************************************

  FILE NAME : D:\ZbNode\Proj\ZbNode\ide\Release\Obj\chipcon_cstartup.r51
  LIBRARY MODULE, NAME : CSTARTUP

  SEGMENTS IN THE MODULE
  ======================
REGISTERS
  Relative segment, address: DATA 00000000, align: 0
  Segment part 0.             Intra module refs:   Segment part 6
           ENTRY                   ADDRESS         REF BY
           =====                   =======         ======
           ?REGISTERS              00000000 
    -------------------------------------------------------------------------
ISTACK
  Relative segment, address: IDATA 000000C0, align: 0
  Segment part 1.             Intra module refs:   Segment part 6
           ENTRY                   ADDRESS         REF BY
           =====                   =======         ======
           ?ISTACK_START           000000C0 
    -------------------------------------------------------------------------
XSTACK
  Relative segment, address: XDATA 00000001, align: 0
  Segment part 3.             Intra module refs:   ?RESET_XSP
           ENTRY                   ADDRESS         REF BY
           =====                   =======         ======
           ?XSTACK_START           00000001 
    -------------------------------------------------------------------------
INTVEC
  Common segment, address: CODE 00002000 - 00002002 (0x3 bytes), align: 0
  Segment part 5. ROOT.       Intra module refs:   Segment part 6
           LOCAL                   ADDRESS         
           =====                   =======         
           ?reset_vector           00002000 
    -------------------------------------------------------------------------
<BANKED_CODE,BANK_RELAYS..> 1 (was CSTART)
  Relative segment, address: CODE 00002F6D - 00002F72 (0x6 bytes), align: 0
  Segment part 6. ROOT.       Intra module refs:   ?reset_vector
           ENTRY                   ADDRESS         REF BY
           =====                   =======         ======
           __program_start         00002F6D        Absolute parts (?ABS_ENTRY_MOD)
           ?RESET_SP               00002F70 
    -------------------------------------------------------------------------
<BANKED_CODE,BANK_RELAYS..> 1 (was CSTART)
  Relative segment, address: CODE 00002F73 - 00002F78 (0x6 bytes), align: 0
  Segment part 8.
           ENTRY                   ADDRESS         REF BY
           =====                   =======         ======
           ?RESET_XSP              00002F73        ?XSP (VIRTUAL_REGISTERS)
    -------------------------------------------------------------------------
<BANKED_CODE,BANK_RELAYS..> 1 (was CSTART)
  Relative segment, address: CODE 00002F79 - 00002F79 (0x1 bytes), align: 0
  Segment part 9.
           ENTRY                   ADDRESS         REF BY
           =====                   =======         ======
           ?RESET_CODE_BANK        00002F79        Absolute parts (?BANKED_CODE_SUPPORT)
    -------------------------------------------------------------------------
<BANKED_CODE,BANK_RELAYS..> 1 (was CSTART)
  Relative segment, address: CODE 00002F7A - 00002F7C (0x3 bytes), align: 0
  Segment part 12.            Intra module refs:   Absolute parts
           LOCAL                   ADDRESS         
           =====                   =======         
           __call_main             00002F7A 

    -------------------------------------------------------------------------
  LIBRARY MODULE, NAME : VIRTUAL_REGISTERS

  SEGMENTS IN THE MODULE
  ======================
BREG
  Relative segment, address: BIT 00000020.0 - 00000020.7 (0x8 bits), align: 0
  Segment part 0.
           ENTRY                   ADDRESS         REF BY
           =====                   =======         ======
           ?B0                     00000020.0      Absolute parts (CSTARTUP)
    -------------------------------------------------------------------------
VREG
  Relative segment, address: DATA 00000008 - 00000008 (0x1 bytes), align: 0
  Segment part 1.             Intra module refs:   ?V1
           ENTRY                   ADDRESS         REF BY
           =====                   =======         ======
           ?V0                     00000008        ?BANKED_ENTER_XDATA (?BANKED_ENTER_XDATA)
                                                   ?BANKED_LEAVE_XDATA (?BANKED_LEAVE_XDATA)
                                                   ?INTERRUPT_ENTER_XSP (?INTERRUPT_ENTER_XSP)
                                                   ?INTERRUPT_LEAVE_XSP (?INTERRUPT_LEAVE_XSP)
                                                   ?SL_GE_X (?SL_GE_X)
                                                   ?Subroutine11 (sMac)
                                                   ?Subroutine12 (sMac)
                                                   ?Subroutine13 (sNwk)
                                                   ?Subroutine16 (BC95)
                                                   ?Subroutine16 (netMngr)
                                                   ?Subroutine2 (Application)
                                                   ?Subroutine2 (hal_uart)
                                                   ?Subroutine22 (sNwk)
                                                   ?Subroutine23 (sNwk)
                                                   ?Subroutine24 (sMac)
                                                   ?Subroutine27 (sMac)
                                                   ?Subroutine3 (nvram)
                                                   ?Subroutine4 (sMac)
                                                   ?Subroutine45 (sMac)
                                                   ?Subroutine5 (Application)
                                                   ?Subroutine5 (gpioSpi)
                                                   ?Subroutine7 (netMngr)
                                                   ?Subroutine7 (sNwk)
                                                   ?Subroutine73 (sMac)
                                                   ?Subroutine9 (BC95)
                                                   ?UL_GE_X (?UL_GE_X)
                                                   AppTask (Application)
                                                   BC95InitAT (BC95)
                                                   BC95IoTHeaderAdd (BC95)
                                                   BC95PollingAT (BC95)
                                                   BC95RxIndicationSearch (BC95)
                                                   BosMalloc (BosMem)
                                                   BosScheduler (kernel)
                                                   HalFlashErase (hal_flash)
                                                   HalFlashRead (hal_flash)
                                                   HalFlashWrite (hal_flash)
                                                   McuPwmCfg (hal_pwm)
                                                   PhyDataIndication (sMac)
                                                   PhySend (sMac)
                                                   Segment part 55 (sMac)
                                                   Segment part 75 (?largewr)
                                                   Segment part 87 (sMac)
                                                   SleepTimeCompSet (hal_time)
                                                   SysTimerStart (sysTimer)
                                                   SysTimerTask (sysTimer)
                                                   TickGet (hal_time)
                                                   UART1_RX_ISR (hal_uart)
                                                   _BosFree (BosMem)
                                                   _large_write (?largewr)
                                                   atCmdStart (netMngr)
                                                   atcmd_resp_search (netMngr)
                                                   att7053buInit (att7053bu)
                                                   att7053buPowerGet (att7053bu)
                                                   att7053buRegRead (att7053bu)
                                                   att7053buRegWrite (att7053bu)
                                                   attributeGet (attribute)
                                                   crc32 (crc)
                                                   float_conversion (?largewr)
                                                   halSpiBufRead (gpioSpi)
                                                   halSpiBufWrite (gpioSpi)
                                                   halUartRecv (hal_uart)
                                                   list_add_tail (list)
                                                   list_del (list)
                                                   memcmp (?memcmp)
                                                   memcpy (?memcpy)
                                                   netMngrInit (netMngr)
                                                   netMngrTask (netMngr)
                                                   netRecv (netMngr)
                                                   netSend (netMngr)
                                                   nvramBlockCheck (nvram)
                                                   nvramInit (nvram)
                                                   sMacCmdNetSearchReq (sMac)
                                                   sMacCmdNetSearchResp (sMac)
                                                   sMacCmdPingPong (sMac)
                                                   sMacDataSendCallBack (sNwk)
                                                   sMacInit (sMac)
                                                   sMacSend (sMac)
                                                   sMacTask (sMac)
                                                   sNwkAddRoute (sNwk)
                                                   sNwkDelateRoute (sNwk)
                                                   sNwkGetNextHop (sNwk)
                                                   sNwkInit (sNwk)
                                                   sNwkRecv (sNwk)
                                                   sNwkTask (sNwk)
                                                   sprintf (?sprintf)
    -------------------------------------------------------------------------
VREG
  Relative segment, address: DATA 00000009 - 00000009 (0x1 bytes), align: 0
  Segment part 2.             Intra module refs:   ?V2
           ENTRY                   ADDRESS         REF BY
           =====                   =======         ======
           ?V1                     00000009        ?Subroutine13 (sNwk)
                                                   ?Subroutine16 (BC95)
                                                   ?Subroutine22 (sNwk)
                                                   ?Subroutine23 (sNwk)
                                                   ?Subroutine24 (sMac)
                                                   ?Subroutine27 (sMac)
                                                   ?Subroutine3 (nvram)
                                                   ?Subroutine5 (gpioSpi)
                                                   ?Subroutine7 (netMngr)
                                                   ?Subroutine7 (sNwk)
                                                   ?Subroutine73 (sMac)
                                                   ?Subroutine9 (BC95)
                                                   AppTask (Application)
                                                   BC95InitAT (BC95)
                                                   BC95IoTHeaderAdd (BC95)
                                                   BC95PollingAT (BC95)
                                                   BosMalloc (BosMem)
                                                   BosScheduler (kernel)
                                                   HalFlashErase (hal_flash)
                                                   HalFlashRead (hal_flash)
                                                   HalFlashWrite (hal_flash)
                                                   McuPwmCfg (hal_pwm)
                                                   PhyDataIndication (sMac)
                                                   PhySend (sMac)
                                                   Segment part 87 (sMac)
                                                   SleepTimeCompSet (hal_time)
                                                   SysTimerStart (sysTimer)
                                                   SysTimerTask (sysTimer)
                                                   TickGet (hal_time)
                                                   UART1_RX_ISR (hal_uart)
                                                   _BosFree (BosMem)
                                                   _large_write (?largewr)
                                                   atCmdStart (netMngr)
                                                   atcmd_resp_search (netMngr)
                                                   att7053buInit (att7053bu)
                                                   att7053buPowerGet (att7053bu)
                                                   att7053buRegRead (att7053bu)
                                                   att7053buRegWrite (att7053bu)
                                                   attributeGet (attribute)
                                                   float_conversion (?largewr)
                                                   halSpiBufRead (gpioSpi)
                                                   halSpiBufWrite (gpioSpi)
                                                   halUartRecv (hal_uart)
                                                   memcmp (?memcmp)
                                                   memcpy (?memcpy)
                                                   netMngrInit (netMngr)
                                                   netMngrTask (netMngr)
                                                   netRecv (netMngr)
                                                   netSend (netMngr)
                                                   nvramBlockCheck (nvram)
                                                   nvramInit (nvram)
                                                   sMacCmdNetSearchReq (sMac)
                                                   sMacCmdNetSearchResp (sMac)
                                                   sMacCmdPingPong (sMac)
                                                   sMacDataSendCallBack (sNwk)
                                                   sMacInit (sMac)
                                                   sMacSend (sMac)
                                                   sMacTask (sMac)
                                                   sNwkAddRoute (sNwk)
                                                   sNwkDelateRoute (sNwk)
                                                   sNwkGetNextHop (sNwk)
                                                   sNwkInit (sNwk)
                                                   sNwkRecv (sNwk)
                                                   sNwkTask (sNwk)
                                                   sprintf (?sprintf)
    -------------------------------------------------------------------------
VREG
  Relative segment, address: DATA 0000000A - 0000000A (0x1 bytes), align: 0
  Segment part 3.             Intra module refs:   ?V3
           ENTRY                   ADDRESS         REF BY
           =====                   =======         ======
           ?V2                     0000000A        ?Subroutine13 (netMngr)
                                                   ?Subroutine2 (nvram)
                                                   ?Subroutine24 (netMngr)
                                                   ?Subroutine3 (Application)
                                                   ?Subroutine3 (nvram)
                                                   ?Subroutine5 (netMngr)
                                                   ?Subroutine6 (BC95)
                                                   ?Subroutine6 (nvram)
                                                   AppTask (Application)
                                                   BC95InitAT (BC95)
                                                   BC95IoTHeaderAdd (BC95)
                                                   BC95PollingAT (BC95)
                                                   BC95RxIndicationSearch (BC95)
                                                   BosMalloc (BosMem)
                                                   HalFlashErase (hal_flash)
                                                   HalFlashRead (hal_flash)
                                                   HalFlashWrite (hal_flash)
                                                   McuPwmCfg (hal_pwm)
                                                   PhyDataIndication (sMac)
                                                   PhySend (sMac)
                                                   SleepTimeCompSet (hal_time)
                                                   SysTimerStart (sysTimer)
                                                   SysTimerTask (sysTimer)
                                                   TickGet (hal_time)
                                                   _BosFree (BosMem)
                                                   _large_write (?largewr)
                                                   atCmdStart (netMngr)
                                                   atcmd_resp_search (netMngr)
                                                   att7053buInit (att7053bu)
                                                   att7053buPowerGet (att7053bu)
                                                   att7053buRegRead (att7053bu)
                                                   att7053buRegWrite (att7053bu)
                                                   attributeGet (attribute)
                                                   float_conversion (?largewr)
                                                   halSpiBufRead (gpioSpi)
                                                   halSpiBufWrite (gpioSpi)
                                                   memcmp (?memcmp)
                                                   netSend (netMngr)
                                                   nvramBlockCheck (nvram)
                                                   nvramInit (nvram)
                                                   sMacCmdNetSearchResp (sMac)
                                                   sMacCmdPingPong (sMac)
                                                   sMacDataSendCallBack (sNwk)
                                                   sMacSend (sMac)
                                                   sMacTask (sMac)
                                                   sNwkAddRoute (sNwk)
                                                   sNwkDelateRoute (sNwk)
                                                   sNwkGetNextHop (sNwk)
                                                   sNwkRecv (sNwk)
                                                   sNwkTask (sNwk)
    -------------------------------------------------------------------------
VREG
  Relative segment, address: DATA 0000000B - 0000000B (0x1 bytes), align: 0
  Segment part 4.             Intra module refs:   ?V4
           ENTRY                   ADDRESS         REF BY
           =====                   =======         ======
           ?V3                     0000000B        ?Subroutine13 (netMngr)
                                                   ?Subroutine2 (nvram)
                                                   ?Subroutine24 (netMngr)
                                                   ?Subroutine3 (Application)
                                                   ?Subroutine3 (nvram)
                                                   ?Subroutine6 (BC95)
                                                   ?Subroutine6 (nvram)
                                                   AppTask (Application)
                                                   BC95InitAT (BC95)
                                                   BC95IoTHeaderAdd (BC95)
                                                   BC95PollingAT (BC95)
                                                   BC95RxIndicationSearch (BC95)
                                                   HalFlashErase (hal_flash)
                                                   HalFlashRead (hal_flash)
                                                   HalFlashWrite (hal_flash)
                                                   McuPwmCfg (hal_pwm)
                                                   PhyDataIndication (sMac)
                                                   PhySend (sMac)
                                                   SleepTimeCompSet (hal_time)
                                                   SysTimerStart (sysTimer)
                                                   SysTimerTask (sysTimer)
                                                   TickGet (hal_time)
                                                   _BosFree (BosMem)
                                                   _large_write (?largewr)
                                                   atCmdStart (netMngr)
                                                   atcmd_resp_search (netMngr)
                                                   att7053buInit (att7053bu)
                                                   att7053buPowerGet (att7053bu)
                                                   att7053buRegRead (att7053bu)
                                                   att7053buRegWrite (att7053bu)
                                                   attributeGet (attribute)
                                                   float_conversion (?largewr)
                                                   halSpiBufRead (gpioSpi)
                                                   halSpiBufWrite (gpioSpi)
                                                   memcmp (?memcmp)
                                                   netSend (netMngr)
                                                   nvramBlockCheck (nvram)
                                                   nvramInit (nvram)
                                                   sMacCmdNetSearchResp (sMac)
                                                   sMacCmdPingPong (sMac)
                                                   sMacSend (sMac)
                                                   sMacTask (sMac)
                                                   sNwkAddRoute (sNwk)
                                                   sNwkDelateRoute (sNwk)
                                                   sNwkGetNextHop (sNwk)
                                                   sNwkRecv (sNwk)
                                                   sNwkTask (sNwk)
    -------------------------------------------------------------------------
VREG
  Relative segment, address: DATA 0000000C - 0000000C (0x1 bytes), align: 0
  Segment part 5.             Intra module refs:   ?V5
           ENTRY                   ADDRESS         REF BY
           =====                   =======         ======
           ?V4                     0000000C        ?Subroutine0 (hal_time)
                                                   ?Subroutine5 (Application)
                                                   ?Subroutine64 (sMac)
                                                   AppTask (Application)
                                                   BC95InitAT (BC95)
                                                   BC95IoTHeaderAdd (BC95)
                                                   BC95PollingAT (BC95)
                                                   BC95RxIndicationSearch (BC95)
                                                   HalFlashRead (hal_flash)
                                                   McuPwmCfg (hal_pwm)
                                                   PhyDataIndication (sMac)
                                                   PhySend (sMac)
                                                   SleepTimeCompSet (hal_time)
                                                   SysTimerTask (sysTimer)
                                                   TickGet (hal_time)
                                                   _BosFree (BosMem)
                                                   _large_write (?largewr)
                                                   atCmdStart (netMngr)
                                                   atcmd_resp_search (netMngr)
                                                   att7053buPowerGet (att7053bu)
                                                   att7053buRegRead (att7053bu)
                                                   att7053buRegWrite (att7053bu)
                                                   attributeGet (attribute)
                                                   float_conversion (?largewr)
                                                   halSpiBufRead (gpioSpi)
                                                   netSend (netMngr)
                                                   nvramBlockCheck (nvram)
                                                   nvramInit (nvram)
                                                   sMacCmdNetSearchResp (sMac)
                                                   sMacCmdPingPong (sMac)
                                                   sMacSend (sMac)
                                                   sMacTask (sMac)
                                                   sNwkAddRoute (sNwk)
                                                   sNwkDelateRoute (sNwk)
                                                   sNwkGetNextHop (sNwk)
                                                   sNwkRecv (sNwk)
                                                   sNwkTask (sNwk)
    -------------------------------------------------------------------------
VREG
  Relative segment, address: DATA 0000000D - 0000000D (0x1 bytes), align: 0
  Segment part 6.             Intra module refs:   ?V6
           ENTRY                   ADDRESS         REF BY
           =====                   =======         ======
           ?V5                     0000000D        ?Subroutine0 (hal_time)
                                                   ?Subroutine64 (sMac)
                                                   AppTask (Application)
                                                   BC95InitAT (BC95)
                                                   BC95IoTHeaderAdd (BC95)
                                                   BC95PollingAT (BC95)
                                                   BC95RxIndicationSearch (BC95)
                                                   HalFlashRead (hal_flash)
                                                   McuPwmCfg (hal_pwm)
                                                   PhyDataIndication (sMac)
                                                   PhySend (sMac)
                                                   SleepTimeCompSet (hal_time)
                                                   SysTimerTask (sysTimer)
                                                   TickGet (hal_time)
                                                   _BosFree (BosMem)
                                                   _large_write (?largewr)
                                                   atCmdStart (netMngr)
                                                   atcmd_resp_search (netMngr)
                                                   att7053buPowerGet (att7053bu)
                                                   att7053buRegRead (att7053bu)
                                                   att7053buRegWrite (att7053bu)
                                                   float_conversion (?largewr)
                                                   halSpiBufRead (gpioSpi)
                                                   netSend (netMngr)
                                                   nvramBlockCheck (nvram)
                                                   nvramInit (nvram)
                                                   sMacCmdNetSearchResp (sMac)
                                                   sMacCmdPingPong (sMac)
                                                   sMacSend (sMac)
                                                   sMacTask (sMac)
                                                   sNwkAddRoute (sNwk)
                                                   sNwkDelateRoute (sNwk)
                                                   sNwkGetNextHop (sNwk)
                                                   sNwkRecv (sNwk)
                                                   sNwkTask (sNwk)
    -------------------------------------------------------------------------
VREG
  Relative segment, address: DATA 0000000E - 0000000E (0x1 bytes), align: 0
  Segment part 7.             Intra module refs:   ?V7
           ENTRY                   ADDRESS         REF BY
           =====                   =======         ======
           ?V6                     0000000E        ?Subroutine0 (hal_time)
                                                   ?Subroutine17 (netMngr)
                                                   ?Subroutine3 (netMngr)
                                                   ?Subroutine4 (netMngr)
                                                   ?Subroutine5 (Application)
                                                   ?Subroutine9 (BC95)
                                                   AppTask (Application)
                                                   BC95InitAT (BC95)
                                                   BC95IoTHeaderAdd (BC95)
                                                   BC95PollingAT (BC95)
                                                   HalFlashRead (hal_flash)
                                                   McuPwmCfg (hal_pwm)
                                                   PhyDataIndication (sMac)
                                                   PhySend (sMac)
                                                   SleepTimeCompSet (hal_time)
                                                   SysTimerTask (sysTimer)
                                                   TickGet (hal_time)
                                                   _large_write (?largewr)
                                                   atCmdStart (netMngr)
                                                   atcmd_resp_search (netMngr)
                                                   att7053buPowerGet (att7053bu)
                                                   att7053buRegRead (att7053bu)
                                                   att7053buRegWrite (att7053bu)
                                                   attributeGet (attribute)
                                                   float_conversion (?largewr)
                                                   netSend (netMngr)
                                                   nvramBlockCheck (nvram)
                                                   nvramInit (nvram)
                                                   sMacCmdNetSearchResp (sMac)
                                                   sMacCmdPingPong (sMac)
                                                   sMacTask (sMac)
                                                   sNwkAddRoute (sNwk)
                                                   sNwkDelateRoute (sNwk)
                                                   sNwkGetNextHop (sNwk)
                                                   sNwkRecv (sNwk)
                                                   sNwkTask (sNwk)
    -------------------------------------------------------------------------
VREG
  Relative segment, address: DATA 0000000F - 0000000F (0x1 bytes), align: 0
  Segment part 8.
           ENTRY                   ADDRESS         REF BY
           =====                   =======         ======
           ?V7                     0000000F        ?Subroutine0 (hal_time)
                                                   ?Subroutine17 (netMngr)
                                                   ?Subroutine4 (netMngr)
                                                   ?Subroutine5 (Application)
                                                   AppTask (Application)
                                                   BC95InitAT (BC95)
                                                   BC95IoTHeaderAdd (BC95)
                                                   BC95PollingAT (BC95)
                                                   HalFlashRead (hal_flash)
                                                   McuPwmCfg (hal_pwm)
                                                   PhyDataIndication (sMac)
                                                   PhySend (sMac)
                                                   SleepTimeCompSet (hal_time)
                                                   SysTimerTask (sysTimer)
                                                   TickGet (hal_time)
                                                   _large_write (?largewr)
                                                   atCmdStart (netMngr)
                                                   atcmd_resp_search (netMngr)
                                                   att7053buPowerGet (att7053bu)
                                                   att7053buRegRead (att7053bu)
                                                   att7053buRegWrite (att7053bu)
                                                   attributeGet (attribute)
                                                   float_conversion (?largewr)
                                                   netSend (netMngr)
                                                   nvramBlockCheck (nvram)
                                                   nvramInit (nvram)
                                                   sMacCmdNetSearchResp (sMac)
                                                   sMacTask (sMac)
                                                   sNwkAddRoute (sNwk)
                                                   sNwkDelateRoute (sNwk)
                                                   sNwkGetNextHop (sNwk)
                                                   sNwkRecv (sNwk)
                                                   sNwkTask (sNwk)
    -------------------------------------------------------------------------
XSP
  Relative segment, address: DATA 00000010 - 00000011 (0x2 bytes), align: 0
  Segment part 34.
           ENTRY                   ADDRESS         REF BY
           =====                   =======         ======
           ?XSP                    00000010        ?ADD_XSTACK_DISP0_8 (?ADD_XSTACK_DISP8)
                                                   ?ALLOC_XSTACK8 (?ALLOC_XSTACK8)
                                                   ?BANKED_ENTER_XDATA (?BANKED_ENTER_XDATA)
                                                   ?BANKED_LEAVE_XDATA (?BANKED_LEAVE_XDATA)
                                                   ?DEALLOC_XSTACK8 (?DEALLOC_XSTACK8)
                                                   ?INTERRUPT_ENTER_XSP (?INTERRUPT_ENTER_XSP)
                                                   ?INTERRUPT_LEAVE_XSP (?INTERRUPT_LEAVE_XSP)
                                                   ?PUSH_XSTACK8_X (?PUSH_XSTACK8_X)
                                                   ?RESET_XSP (CSTARTUP)
                                                   ?Subroutine1 (gpioSpi)
                                                   ?Subroutine14 (sNwk)
                                                   ?Subroutine15 (sNwk)
                                                   ?Subroutine19 (sNwk)
                                                   ?Subroutine2 (gpioSpi)
                                                   ?Subroutine25 (sNwk)
                                                   ?Subroutine6 (netMngr)
                                                   ?XSTACK_DISP0_8 (?XSTACK_DISP8)
                                                   ?XSTACK_DISP100_8 (?XSTACK_DISP8_RP)
                                                   ?XSTACK_DISP101_8 (?XSTACK_DISP8_RP)
                                                   ?XSTACK_DISP102_8 (?XSTACK_DISP8_RP)
                                                   AppTask (Application)
                                                   BC95InitAT (BC95)
                                                   BC95PollingAT (BC95)
                                                   HalFlashWrite (hal_flash)
                                                   PhyDataIndication (sMac)
                                                   PhySend (sMac)
                                                   Segment part 100 (?largewr)
                                                   Segment part 103 (?largewr)
                                                   Segment part 153 (sMac)
                                                   Segment part 35 (?largewr)
                                                   Segment part 38 (?largewr)
                                                   Segment part 45 (?largewr)
                                                   Segment part 72 (?largewr)
                                                   Segment part 79 (?largewr)
                                                   Segment part 85 (?largewr)
                                                   Segment part 86 (?largewr)
                                                   SleepTimeCompSet (hal_time)
                                                   SysTimerTask (sysTimer)
                                                   _large_write (?largewr)
                                                   atCmdStart (netMngr)
                                                   atcmd_resp_search (netMngr)
                                                   att7053buInit (att7053bu)
                                                   att7053buRegRead (att7053bu)
                                                   att7053buRegWrite (att7053bu)
                                                   attributeGet (attribute)
                                                   float_conversion (?largewr)
                                                   halRfTransmit (hal_rf)
                                                   halSpiTranceive (gpioSpi)
                                                   memset (?memset)
                                                   netMngrInit (netMngr)
                                                   netMngrTask (netMngr)
                                                   nvramBlockCheck (nvram)
                                                   nvramInit (nvram)
                                                   sMacAddressGet (sMac)
                                                   sMacCmdNetSearchReq (sMac)
                                                   sMacCmdNetSearchResp (sMac)
                                                   sMacCmdPingPong (sMac)
                                                   sMacInit (sMac)
                                                   sMacSend (sMac)
                                                   sMacTask (sMac)
                                                   sNwkTask (sNwk)
                                                   sprintf (?sprintf)

    *************************************************************************

  FILE NAME : D:\ZbNode\Proj\ZbNode\ide\Release\Obj\crc.r51
  PROGRAM MODULE, NAME : crc

  SEGMENTS IN THE MODULE
  ======================
<BANKED_CODE,XDATA_ROM_C_FLASH> 1 (was BANKED_CODE)
  Relative segment, address: CODE 0000A3DA - 0000A439 (0x60 bytes), align: 0
  Segment part 7.             Intra module refs:   crc32::?relay
           ENTRY                   ADDRESS         REF BY
           =====                   =======         ======
           crc32                   0000A3DA 
               XSTACK = 00000002 ( 00000009 )
    -------------------------------------------------------------------------
<BANKED_CODE,XDATA_ROM_C_FLASH> 1 (was BANKED_CODE)
  Relative segment, address: CODE 0000A43A - 0000A43E (0x5 bytes), align: 0
  Segment part 9.             Intra module refs:   crc32
                                                   sum8
           LOCAL                   ADDRESS         
           =====                   =======         
           ?Subroutine0            0000A43A 
    -------------------------------------------------------------------------
<BANKED_CODE,XDATA_ROM_C_FLASH> 1 (was BANKED_CODE)
  Relative segment, address: CODE 0000A43F - 0000A469 (0x2b bytes), align: 0
  Segment part 12.            Intra module refs:   sum8::?relay
           ENTRY                   ADDRESS         REF BY
           =====                   =======         ======
           sum8                    0000A43F 
               XSTACK = 00000000 ( 00000009 )
    -------------------------------------------------------------------------
<BANKED_CODE,XDATA_ROM_C_FLASH> 1 (was BANKED_CODE)
  Relative segment, address: CODE 0000A46A - 0000A474 (0xb bytes), align: 0
  Segment part 14.            Intra module refs:   sum8
           LOCAL                   ADDRESS         
           =====                   =======         
           ?Subroutine1            0000A46A 
    -------------------------------------------------------------------------
<BANKED_CODE,BANK_RELAYS..> 1 (was BANK_RELAYS)
  Relative segment, address: CODE 00003227 - 0000322C (0x6 bytes), align: 0
  Segment part 8.
           ENTRY                   ADDRESS         REF BY
           =====                   =======         ======
           crc32::?relay           00003227        PhyDataIndication (sMac)
                                                   PhySend (sMac)
                                                   nvramBlockCheck (nvram)
                                                   nvramInit (nvram)
    -------------------------------------------------------------------------
<BANKED_CODE,BANK_RELAYS..> 1 (was BANK_RELAYS)
  Relative segment, address: CODE 00003221 - 00003226 (0x6 bytes), align: 0
  Segment part 13.
           ENTRY                   ADDRESS         REF BY
           =====                   =======         ======
           sum8::?relay            00003221        AppTask (Application)

    *************************************************************************

  FILE NAME : D:\ZbNode\Proj\ZbNode\ide\Release\Obj\gpioSpi.r51
  PROGRAM MODULE, NAME : gpioSpi

  SEGMENTS IN THE MODULE
  ======================
SFR_AN
  Relative segment, address: DATA 0000008F - 0000008F (0x1 bytes), align: 0
  Segment part 2. ROOT.       Intra module refs:   halSpiInit
           ENTRY                   ADDRESS         REF BY
           =====                   =======         ======
           P0INP                   0000008F 
    -------------------------------------------------------------------------
SFR_AN
  Relative segment, address: DATA 000000F7 - 000000F7 (0x1 bytes), align: 0
  Segment part 4. ROOT.       Intra module refs:   halSpiInit
           ENTRY                   ADDRESS         REF BY
           =====                   =======         ======
           P2INP                   000000F7 
    -------------------------------------------------------------------------
<BANKED_CODE,XDATA_ROM_C_FLASH> 1 (was BANKED_CODE)
  Relative segment, address: CODE 00009982 - 000099A2 (0x21 bytes), align: 0
  Segment part 11.            Intra module refs:   halSpiInit::?relay
           ENTRY                   ADDRESS         REF BY
           =====                   =======         ======
           halSpiInit              00009982 
    -------------------------------------------------------------------------
<BANKED_CODE,XDATA_ROM_C_FLASH> 1 (was BANKED_CODE)
  Relative segment, address: CODE 000099A3 - 00009A56 (0xb4 bytes), align: 0
  Segment part 13.            Intra module refs:   halSpiTranceive::?relay
           LOCAL                   ADDRESS         
           =====                   =======         
           halSpiTranceive         000099A3 
               XSTACK = 0000000E ( 00000002 )
               ISTACK = 00000000 ( 00000002 )
    -------------------------------------------------------------------------
<BANKED_CODE,XDATA_ROM_C_FLASH> 1 (was BANKED_CODE)
  Relative segment, address: CODE 00009A57 - 00009A5F (0x9 bytes), align: 0
  Segment part 15.            Intra module refs:   halSpiInit
                                                   halSpiTranceive
           LOCAL                   ADDRESS         
           =====                   =======         
           ?Subroutine6            00009A57 
    -------------------------------------------------------------------------
<BANKED_CODE,XDATA_ROM_C_FLASH> 1 (was BANKED_CODE)
  Relative segment, address: CODE 00009A60 - 00009A6E (0xf bytes), align: 0
  Segment part 16.            Intra module refs:   halSpiTranceive
           LOCAL                   ADDRESS         
           =====                   =======         
           ?Subroutine2            00009A60 
    -------------------------------------------------------------------------
<BANKED_CODE,XDATA_ROM_C_FLASH> 1 (was BANKED_CODE)
  Relative segment, address: CODE 00009A6F - 00009A83 (0x15 bytes), align: 0
  Segment part 17.            Intra module refs:   halSpiTranceive
           LOCAL                   ADDRESS         
           =====                   =======         
           ?Subroutine1            00009A6F 
    -------------------------------------------------------------------------
<BANKED_CODE,XDATA_ROM_C_FLASH> 1 (was BANKED_CODE)
  Relative segment, address: CODE 00009A84 - 00009AC0 (0x3d bytes), align: 0
  Segment part 23.            Intra module refs:   halSpiBufRead::?relay
           ENTRY                   ADDRESS         REF BY
           =====                   =======         ======
           halSpiBufRead           00009A84 
               calls direct
               XSTACK = 00000000 ( 0000000E )
               ISTACK = 00000000 ( 00000001 )
    -------------------------------------------------------------------------
<BANKED_CODE,XDATA_ROM_C_FLASH> 1 (was BANKED_CODE)
  Relative segment, address: CODE 00009AC1 - 00009AC9 (0x9 bytes), align: 0
  Segment part 25.            Intra module refs:   halSpiBufRead
                                                   halSpiBufWrite
           LOCAL                   ADDRESS         
           =====                   =======         
           ?Subroutine4            00009AC1 
    -------------------------------------------------------------------------
<BANKED_CODE,XDATA_ROM_C_FLASH> 1 (was BANKED_CODE)
  Relative segment, address: CODE 00009ACA - 00009AD2 (0x9 bytes), align: 0
  Segment part 26.            Intra module refs:   halSpiBufRead
                                                   halSpiBufWrite
                                                   halSpiInit
           LOCAL                   ADDRESS         
           =====                   =======         
           ?Subroutine3            00009ACA 
    -------------------------------------------------------------------------
<BANKED_CODE,XDATA_ROM_C_FLASH> 1 (was BANKED_CODE)
  Relative segment, address: CODE 00009AD3 - 00009B09 (0x37 bytes), align: 0
  Segment part 27.            Intra module refs:   halSpiBufWrite::?relay
           ENTRY                   ADDRESS         REF BY
           =====                   =======         ======
           halSpiBufWrite          00009AD3 
               calls direct
               XSTACK = 00000000 ( 0000000C )
    -------------------------------------------------------------------------
<BANKED_CODE,XDATA_ROM_C_FLASH> 1 (was BANKED_CODE)
  Relative segment, address: CODE 00009B0A - 00009B1F (0x16 bytes), align: 0
  Segment part 29.            Intra module refs:   halSpiBufRead
                                                   halSpiBufWrite
           LOCAL                   ADDRESS         
           =====                   =======         
           ?Subroutine5            00009B0A 
    -------------------------------------------------------------------------
<BANKED_CODE,BANK_RELAYS..> 1 (was BANK_RELAYS)
  Relative segment, address: CODE 0000321B - 00003220 (0x6 bytes), align: 0
  Segment part 12.
           ENTRY                   ADDRESS         REF BY
           =====                   =======         ======
           halSpiInit::?relay      0000321B        att7053buInit (att7053bu)
    -------------------------------------------------------------------------
<BANKED_CODE,BANK_RELAYS..> 1 (was BANK_RELAYS)
  Relative segment, address: CODE 00003215 - 0000321A (0x6 bytes), align: 0
  Segment part 14.            Intra module refs:   halSpiBufRead
                                                   halSpiBufWrite
           LOCAL                   ADDRESS         
           =====                   =======         
           halSpiTranceive::?relay
                                   00003215 
    -------------------------------------------------------------------------
<BANKED_CODE,BANK_RELAYS..> 1 (was BANK_RELAYS)
  Relative segment, address: CODE 0000320F - 00003214 (0x6 bytes), align: 0
  Segment part 24.
           ENTRY                   ADDRESS         REF BY
           =====                   =======         ======
           halSpiBufRead::?relay   0000320F        att7053buRegRead (att7053bu)
    -------------------------------------------------------------------------
<BANKED_CODE,BANK_RELAYS..> 1 (was BANK_RELAYS)
  Relative segment, address: CODE 00003209 - 0000320E (0x6 bytes), align: 0
  Segment part 28.
           ENTRY                   ADDRESS         REF BY
           =====                   =======         ======
           halSpiBufWrite::?relay
                                   00003209        att7053buInit (att7053bu)
                                                   att7053buRegWrite (att7053bu)

    *************************************************************************

  FILE NAME : D:\ZbNode\Proj\ZbNode\ide\Release\Obj\hal_clock.r51
  PROGRAM MODULE, NAME : hal_clock

  SEGMENTS IN THE MODULE
  ======================
SFR_AN
  Relative segment, address: DATA 0000009D - 0000009D (0x1 bytes), align: 0
  Segment part 1. ROOT.       Intra module refs:   clockSetMainSrc
           ENTRY                   ADDRESS         REF BY
           =====                   =======         ======
           SLEEPSTA                0000009D 
    -------------------------------------------------------------------------
SFR_AN
  Relative segment, address: DATA 0000009E - 0000009E (0x1 bytes), align: 0
  Segment part 2. ROOT.       Intra module refs:   clockSetMainSrc
           ENTRY                   ADDRESS         REF BY
           =====                   =======         ======
           CLKCONSTA               0000009E 
    -------------------------------------------------------------------------
SFR_AN
  Relative segment, address: DATA 000000BE - 000000BE (0x1 bytes), align: 0
  Segment part 3. ROOT.       Intra module refs:   clockSetMainSrc
           ENTRY                   ADDRESS         REF BY
           =====                   =======         ======
           SLEEPCMD                000000BE 
    -------------------------------------------------------------------------
SFR_AN
  Relative segment, address: DATA 000000C6 - 000000C6 (0x1 bytes), align: 0
  Segment part 4. ROOT.       Intra module refs:   clockSetMainSrc
           ENTRY                   ADDRESS         REF BY
           =====                   =======         ======
           CLKCONCMD               000000C6 
    -------------------------------------------------------------------------
<BANKED_CODE,BANK_RELAYS..> 1 (was BANKED_CODE)
  Relative segment, address: CODE 00007FC1 - 00007FF4 (0x34 bytes), align: 0
  Segment part 10.            Intra module refs:   clockSetMainSrc::?relay
           ENTRY                   ADDRESS         REF BY
           =====                   =======         ======
           clockSetMainSrc         00007FC1 
    -------------------------------------------------------------------------
<BANKED_CODE,BANK_RELAYS..> 1 (was BANK_RELAYS)
  Relative segment, address: CODE 00003203 - 00003208 (0x6 bytes), align: 0
  Segment part 11.
           ENTRY                   ADDRESS         REF BY
           =====                   =======         ======
           clockSetMainSrc::?relay
                                   00003203        halMcuInit (hal_mcu)

    *************************************************************************

  FILE NAME : D:\ZbNode\Proj\ZbNode\ide\Release\Obj\hal_flash.r51
  PROGRAM MODULE, NAME : hal_flash

  SEGMENTS IN THE MODULE
  ======================
SFR_AN
  Relative segment, address: DATA 000000C7 - 000000C7 (0x1 bytes), align: 0
  Segment part 2. ROOT.       Intra module refs:   HalFlashRead
                                                   __low_level_init (hal_startup)
           ENTRY                   ADDRESS         REF BY
           =====                   =======         ======
           MEMCTR                  000000C7 
    -------------------------------------------------------------------------
SFR_AN
  Relative segment, address: DATA 000000D1 - 000000D1 (0x1 bytes), align: 0
  Segment part 3. ROOT.       Intra module refs:   HalFlashWrite
           ENTRY                   ADDRESS         REF BY
           =====                   =======         ======
           DMAIRQ                  000000D1 
    -------------------------------------------------------------------------
SFR_AN
  Relative segment, address: DATA 000000D4 - 000000D4 (0x1 bytes), align: 0
  Segment part 4. ROOT.       Intra module refs:   HalFlashWrite
           ENTRY                   ADDRESS         REF BY
           =====                   =======         ======
           DMA0CFGL                000000D4 
    -------------------------------------------------------------------------
SFR_AN
  Relative segment, address: DATA 000000D5 - 000000D5 (0x1 bytes), align: 0
  Segment part 5. ROOT.       Intra module refs:   HalFlashWrite
           ENTRY                   ADDRESS         REF BY
           =====                   =======         ======
           DMA0CFGH                000000D5 
    -------------------------------------------------------------------------
SFR_AN
  Relative segment, address: DATA 000000D6 - 000000D6 (0x1 bytes), align: 0
  Segment part 6. ROOT.       Intra module refs:   HalFlashWrite
           ENTRY                   ADDRESS         REF BY
           =====                   =======         ======
           DMAARM                  000000D6 
    -------------------------------------------------------------------------
<BANKED_CODE,XDATA_ROM_C_FLASH> 1 (was BANKED_CODE)
  Relative segment, address: CODE 00009E51 - 00009EF9 (0xa9 bytes), align: 0
  Segment part 12.            Intra module refs:   HalFlashRead::?relay
           ENTRY                   ADDRESS         REF BY
           =====                   =======         ======
           HalFlashRead            00009E51 
               XSTACK = 00000004 ( 00000010 )
               ISTACK = 00000000 ( 00000001 )
    -------------------------------------------------------------------------
<BANKED_CODE,XDATA_ROM_C_FLASH> 1 (was BANKED_CODE)
  Relative segment, address: CODE 00009EFA - 00009FA7 (0xae bytes), align: 0
  Segment part 14.            Intra module refs:   HalFlashWrite::?relay
           ENTRY                   ADDRESS         REF BY
           =====                   =======         ======
           HalFlashWrite           00009EFA 
               XSTACK = 00000004 ( 00000014 )
               ISTACK = 00000000 ( 00000001 )
    -------------------------------------------------------------------------
<BANKED_CODE,XDATA_ROM_C_FLASH> 1 (was BANKED_CODE)
  Relative segment, address: CODE 00009FA8 - 00009FAC (0x5 bytes), align: 0
  Segment part 16.            Intra module refs:   HalFlashErase
                                                   HalFlashWrite
           LOCAL                   ADDRESS         
           =====                   =======         
           ?Subroutine0            00009FA8 
    -------------------------------------------------------------------------
<BANKED_CODE,XDATA_ROM_C_FLASH> 1 (was BANKED_CODE)
  Relative segment, address: CODE 00009FAD - 00009FCF (0x23 bytes), align: 0
  Segment part 17.            Intra module refs:   HalFlashErase::?relay
           ENTRY                   ADDRESS         REF BY
           =====                   =======         ======
           HalFlashErase           00009FAD 
               XSTACK = 00000000 ( 0000000C )
    -------------------------------------------------------------------------
<BANKED_CODE,BANK_RELAYS..> 1 (was BANK_RELAYS)
  Relative segment, address: CODE 000031FD - 00003202 (0x6 bytes), align: 0
  Segment part 13.
           ENTRY                   ADDRESS         REF BY
           =====                   =======         ======
           HalFlashRead::?relay    000031FD        AppTask (Application)
                                                   attributeGet (attribute)
                                                   nvramBlockCheck (nvram)
                                                   nvramInit (nvram)
                                                   sMacAddressGet (sMac)
                                                   sMacCmdNetSearchReq (sMac)
                                                   sMacCmdNetSearchResp (sMac)
                                                   sMacCmdPingPong (sMac)
                                                   sMacInit (sMac)
                                                   sMacSend (sMac)
                                                   sMacTask (sMac)
    -------------------------------------------------------------------------
<BANKED_CODE,BANK_RELAYS..> 1 (was BANK_RELAYS)
  Relative segment, address: CODE 000031F7 - 000031FC (0x6 bytes), align: 0
  Segment part 15.
           ENTRY                   ADDRESS         REF BY
           =====                   =======         ======
           HalFlashWrite::?relay   000031F7        nvramInit (nvram)
    -------------------------------------------------------------------------
<BANKED_CODE,BANK_RELAYS..> 1 (was BANK_RELAYS)
  Relative segment, address: CODE 000031F1 - 000031F6 (0x6 bytes), align: 0
  Segment part 18.
           ENTRY                   ADDRESS         REF BY
           =====                   =======         ======
           HalFlashErase::?relay   000031F1        nvramInit (nvram)

    *************************************************************************

  FILE NAME : D:\ZbNode\Proj\ZbNode\ide\Release\Obj\hal_mcu.r51
  PROGRAM MODULE, NAME : hal_mcu

  SEGMENTS IN THE MODULE
  ======================
SFR_AN
  Relative segment, address: DATA 000000C9 - 000000C9 (0x1 bytes), align: 0
  Segment part 2. ROOT.
           ENTRY                   ADDRESS         REF BY
           =====                   =======         ======
           WDCTL                   000000C9 
    -------------------------------------------------------------------------
<BANKED_CODE,XDATA_ROM_C_FLASH> 1 (was BANKED_CODE)
  Relative segment, address: CODE 0000A5EC - 0000A5FB (0x10 bytes), align: 0
  Segment part 8.             Intra module refs:   halMcuInit::?relay
           ENTRY                   ADDRESS         REF BY
           =====                   =======         ======
           halMcuInit              0000A5EC 
               calls direct
               ISTACK = 00000000 ( 00000002 )
    -------------------------------------------------------------------------
<BANKED_CODE,XDATA_ROM_C_FLASH> 1 (was BANKED_CODE)
  Relative segment, address: CODE 0000A5FC - 0000A600 (0x5 bytes), align: 0
  Segment part 10.            Intra module refs:   EnableInterrupts::?relay
           ENTRY                   ADDRESS         REF BY
           =====                   =======         ======
           EnableInterrupts        0000A5FC 
    -------------------------------------------------------------------------
<BANKED_CODE,BANK_RELAYS..> 1 (was BANK_RELAYS)
  Relative segment, address: CODE 000031EB - 000031F0 (0x6 bytes), align: 0
  Segment part 9.
           ENTRY                   ADDRESS         REF BY
           =====                   =======         ======
           halMcuInit::?relay      000031EB        halBoardInit (board)
    -------------------------------------------------------------------------
<BANKED_CODE,BANK_RELAYS..> 1 (was BANK_RELAYS)
  Relative segment, address: CODE 000031E5 - 000031EA (0x6 bytes), align: 0
  Segment part 11.
           ENTRY                   ADDRESS         REF BY
           =====                   =======         ======
           EnableInterrupts::?relay
                                   000031E5        main (startup)

    *************************************************************************

  FILE NAME : D:\ZbNode\Proj\ZbNode\ide\Release\Obj\hal_pwm.r51
  PROGRAM MODULE, NAME : hal_pwm

  SEGMENTS IN THE MODULE
  ======================
SFR_AN
  Relative segment, address: DATA 00000090 - 00000090 (0x1 bytes), align: 0
  Segment part 1. ROOT.       Intra module refs:   McuPwmCfg
           ENTRY                   ADDRESS         REF BY
           =====                   =======         ======
           _A_P1                   00000090 
           LOCAL                   ADDRESS         
           =====                   =======         
           P1                      00000090 
    -------------------------------------------------------------------------
SFR_AN
  Relative segment, address: DATA 000000DA - 000000DA (0x1 bytes), align: 0
  Segment part 2. ROOT.       Intra module refs:   McuPwmCfg
           ENTRY                   ADDRESS         REF BY
           =====                   =======         ======
           T1CC0L                  000000DA 
    -------------------------------------------------------------------------
SFR_AN
  Relative segment, address: DATA 000000DB - 000000DB (0x1 bytes), align: 0
  Segment part 3. ROOT.       Intra module refs:   McuPwmCfg
           ENTRY                   ADDRESS         REF BY
           =====                   =======         ======
           T1CC0H                  000000DB 
    -------------------------------------------------------------------------
SFR_AN
  Relative segment, address: DATA 000000DE - 000000DE (0x1 bytes), align: 0
  Segment part 4. ROOT.       Intra module refs:   McuPwmCfg
           ENTRY                   ADDRESS         REF BY
           =====                   =======         ======
           T1CC2L                  000000DE 
    -------------------------------------------------------------------------
SFR_AN
  Relative segment, address: DATA 000000DF - 000000DF (0x1 bytes), align: 0
  Segment part 5. ROOT.       Intra module refs:   McuPwmCfg
           ENTRY                   ADDRESS         REF BY
           =====                   =======         ======
           T1CC2H                  000000DF 
    -------------------------------------------------------------------------
SFR_AN
  Relative segment, address: DATA 000000E4 - 000000E4 (0x1 bytes), align: 0
  Segment part 6. ROOT.       Intra module refs:   McuPWMInit
                                                   McuPwmCfg
           ENTRY                   ADDRESS         REF BY
           =====                   =======         ======
           T1CTL                   000000E4 
    -------------------------------------------------------------------------
SFR_AN
  Relative segment, address: DATA 000000E7 - 000000E7 (0x1 bytes), align: 0
  Segment part 7. ROOT.       Intra module refs:   McuPWMInit
           ENTRY                   ADDRESS         REF BY
           =====                   =======         ======
           T1CCTL2                 000000E7 
    -------------------------------------------------------------------------
SFR_AN
  Relative segment, address: DATA 000000F1 - 000000F1 (0x1 bytes), align: 0
  Segment part 8. ROOT.       Intra module refs:   McuPwmCfg
                                                   halUartInit (hal_uart)
           ENTRY                   ADDRESS         REF BY
           =====                   =======         ======
           PERCFG                  000000F1 
    -------------------------------------------------------------------------
SFR_AN
  Relative segment, address: DATA 000000F4 - 000000F4 (0x1 bytes), align: 0
  Segment part 9. ROOT.       Intra module refs:   McuPwmCfg
                                                   halUartInit (hal_uart)
           ENTRY                   ADDRESS         REF BY
           =====                   =======         ======
           P1SEL                   000000F4 
    -------------------------------------------------------------------------
SFR_AN
  Relative segment, address: DATA 000000FE - 000000FE (0x1 bytes), align: 0
  Segment part 10. ROOT.      Intra module refs:   McuPWMInit
                                                   McuPwmCfg
                                                   halUartInit (hal_uart)
           ENTRY                   ADDRESS         REF BY
           =====                   =======         ======
           P1DIR                   000000FE 
    -------------------------------------------------------------------------
<BANKED_CODE,XDATA_ROM_C_FLASH> 1 (was BANKED_CODE)
  Relative segment, address: CODE 0000A31E - 0000A32D (0x10 bytes), align: 0
  Segment part 18.            Intra module refs:   McuPWMInit::?relay
           ENTRY                   ADDRESS         REF BY
           =====                   =======         ======
           McuPWMInit              0000A31E 
    -------------------------------------------------------------------------
<BANKED_CODE,XDATA_ROM_C_FLASH> 1 (was BANKED_CODE)
  Relative segment, address: CODE 0000A32E - 0000A3CF (0xa2 bytes), align: 0
  Segment part 20.            Intra module refs:   McuPwmCfg::?relay
           ENTRY                   ADDRESS         REF BY
           =====                   =======         ======
           McuPwmCfg               0000A32E 
               XSTACK = 00000000 ( 00000010 )
    -------------------------------------------------------------------------
<BANKED_CODE,XDATA_ROM_C_FLASH> 1 (was BANKED_CODE)
  Relative segment, address: CODE 0000A3D0 - 0000A3D9 (0xa bytes), align: 0
  Segment part 22.            Intra module refs:   McuPwmCfg
           LOCAL                   ADDRESS         
           =====                   =======         
           ?Subroutine0            0000A3D0 
    -------------------------------------------------------------------------
<XDATA_ROM_C> 1 (was XDATA_ROM_C)
  Relative segment, address: CONST 00008339 - 0000833C (0x4 bytes), align: 0
  Segment part 16.            Intra module refs:   McuPwmCfg
           ENTRY                   ADDRESS         REF BY
           =====                   =======         ======
           __Constant_32           00008339 
    -------------------------------------------------------------------------
<XDATA_ROM_C> 1 (was XDATA_ROM_C)
  Relative segment, address: CONST 0000833D - 00008340 (0x4 bytes), align: 0
  Segment part 17.            Intra module refs:   McuPwmCfg
           ENTRY                   ADDRESS         REF BY
           =====                   =======         ======
           __Constant_64           0000833D 
    -------------------------------------------------------------------------
<BANKED_CODE,BANK_RELAYS..> 1 (was BANK_RELAYS)
  Relative segment, address: CODE 000031DF - 000031E4 (0x6 bytes), align: 0
  Segment part 19.
           ENTRY                   ADDRESS         REF BY
           =====                   =======         ======
           McuPWMInit::?relay      000031DF        halBoardInit (board)
    -------------------------------------------------------------------------
<BANKED_CODE,BANK_RELAYS..> 1 (was BANK_RELAYS)
  Relative segment, address: CODE 000031D9 - 000031DE (0x6 bytes), align: 0
  Segment part 21.
           ENTRY                   ADDRESS         REF BY
           =====                   =======         ======
           McuPwmCfg::?relay       000031D9        ApplicationInit (Application)
    -------------------------------------------------------------------------
<BANKED_CODE,XDATA_ROM_C_FLASH> 1 (was XDATA_ROM_C_FLASH)
  Relative segment, address: CODE 00008339 - 0000833C (0x4 bytes), align: 0
  Segment part 23.            Intra module refs:   __Constant_32
    -------------------------------------------------------------------------
<BANKED_CODE,XDATA_ROM_C_FLASH> 1 (was XDATA_ROM_C_FLASH)
  Relative segment, address: CODE 0000833D - 00008340 (0x4 bytes), align: 0
  Segment part 24.            Intra module refs:   __Constant_64

    *************************************************************************

  FILE NAME : D:\ZbNode\Proj\ZbNode\ide\Release\Obj\hal_rf.r51
  PROGRAM MODULE, NAME : hal_rf

  SEGMENTS IN THE MODULE
  ======================
SFR_AN
  Relative segment, address: DATA 00000091 - 00000091 (0x1 bytes), align: 0
  Segment part 2. ROOT.       Intra module refs:   halRfTransmit
                                                   halRfWriteTxBuf
           ENTRY                   ADDRESS         REF BY
           =====                   =======         ======
           RFIRQF1                 00000091 
    -------------------------------------------------------------------------
SFR_AN
  Relative segment, address: DATA 0000009A - 0000009A (0x1 bytes), align: 0
  Segment part 3. ROOT.       Intra module refs:   halRfDisableRxInterrupt
                                                   halRfEnableRxInterrupt
                                                   halRfInit
           ENTRY                   ADDRESS         REF BY
           =====                   =======         ======
           IEN2                    0000009A 
    -------------------------------------------------------------------------
SFR_AN
  Relative segment, address: DATA 0000009B - 0000009B (0x1 bytes), align: 0
  Segment part 4. ROOT.       Intra module refs:   rfIsr
           ENTRY                   ADDRESS         REF BY
           =====                   =======         ======
           S1CON                   0000009B 
    -------------------------------------------------------------------------
SFR_AN
  Relative segment, address: DATA 000000A9 - 000000A9 (0x1 bytes), align: 0
  Segment part 6. ROOT.       Intra module refs:   halRfInit
           ENTRY                   ADDRESS         REF BY
           =====                   =======         ======
           IP0                     000000A9 
    -------------------------------------------------------------------------
SFR_AN
  Relative segment, address: DATA 000000B4 - 000000B4 (0x1 bytes), align: 0
  Segment part 7. ROOT.       Intra module refs:   halRfGetRandomByte
                                                   halRfGetRandomWord
           ENTRY                   ADDRESS         REF BY
           =====                   =======         ======
           ADCCON1                 000000B4 
    -------------------------------------------------------------------------
SFR_AN
  Relative segment, address: DATA 000000B9 - 000000B9 (0x1 bytes), align: 0
  Segment part 8. ROOT.       Intra module refs:   halRfInit
           ENTRY                   ADDRESS         REF BY
           =====                   =======         ======
           IP1                     000000B9 
    -------------------------------------------------------------------------
SFR_AN
  Relative segment, address: DATA 000000BC - 000000BC (0x1 bytes), align: 0
  Segment part 9. ROOT.       Intra module refs:   halRfGetRandomWord
                                                   halRfInit
           ENTRY                   ADDRESS         REF BY
           =====                   =======         ======
           RNDL                    000000BC 
    -------------------------------------------------------------------------
SFR_AN
  Relative segment, address: DATA 000000BD - 000000BD (0x1 bytes), align: 0
  Segment part 10. ROOT.      Intra module refs:   halRfGetRandomByte
                                                   halRfGetRandomWord
                                                   halRfInit
           ENTRY                   ADDRESS         REF BY
           =====                   =======         ======
           RNDH                    000000BD 
    -------------------------------------------------------------------------
SFR_AN
  Relative segment, address: DATA 000000BF - 000000BF (0x1 bytes), align: 0
  Segment part 11. ROOT.      Intra module refs:   rfErrIsr
           ENTRY                   ADDRESS         REF BY
           =====                   =======         ======
           RFERRF                  000000BF 
    -------------------------------------------------------------------------
SFR_AN
  Relative segment, address: DATA 000000D9 - 000000D9 (0x1 bytes), align: 0
  Segment part 12. ROOT.      Intra module refs:   halRfReadRxBuf
                                                   halRfWriteTxBuf
           ENTRY                   ADDRESS         REF BY
           =====                   =======         ======
           RFD                     000000D9 
    -------------------------------------------------------------------------
SFR_AN
  Relative segment, address: DATA 000000E1 - 000000E1 (0x1 bytes), align: 0
  Segment part 13. ROOT.      Intra module refs:   halRfInit
                                                   halRfReceiveOn
                                                   halRfTransmit
                                                   halRfWriteTxBuf
                                                   rfErrIsr
                                                   rfIsr
           ENTRY                   ADDRESS         REF BY
           =====                   =======         ======
           RFST                    000000E1 
    -------------------------------------------------------------------------
SFR_AN
  Relative segment, address: DATA 000000E9 - 000000E9 (0x1 bytes), align: 0
  Segment part 14. ROOT.      Intra module refs:   rfIsr
           ENTRY                   ADDRESS         REF BY
           =====                   =======         ======
           RFIRQF0                 000000E9 
    -------------------------------------------------------------------------
XDATA_Z
  Relative segment, address: XDATA 00000399 - 0000039A (0x2 bytes), align: 0
  Segment part 22.            Intra module refs:   halRfRxInterruptConfig
                                                   rfIsr
           LOCAL                   ADDRESS         
           =====                   =======         
           pfISR                   00000399 
    -------------------------------------------------------------------------
XDATA_I
  Relative segment, address: XDATA 000016C6 - 000016C6 (0x1 bytes), align: 0
  Segment part 23.            Intra module refs:   halRfGetRssiOffset
           LOCAL                   ADDRESS         
           =====                   =======         
           rssiOffset              000016C6 
    -------------------------------------------------------------------------
<BANKED_CODE,XDATA_ROM_C_FLASH> 1 (was BANKED_CODE)
  Relative segment, address: CODE 0000957A - 0000962F (0xb6 bytes), align: 0
  Segment part 25.            Intra module refs:   halRfInit::?relay
           ENTRY                   ADDRESS         REF BY
           =====                   =======         ======
           halRfInit               0000957A 
               ISTACK = 00000000 ( 00000002 )
    -------------------------------------------------------------------------
<BANKED_CODE,XDATA_ROM_C_FLASH> 1 (was BANKED_CODE)
  Relative segment, address: CODE 00009630 - 00009630 (0x1 bytes), align: 0
  Segment part 29.            Intra module refs:   halRfGetRssiOffset
           LOCAL                   ADDRESS         
           =====                   =======         
           ?Subroutine2            00009630 
    -------------------------------------------------------------------------
<BANKED_CODE,XDATA_ROM_C_FLASH> 1 (was BANKED_CODE)
  Relative segment, address: CODE 00009631 - 00009634 (0x4 bytes), align: 0
  Segment part 30.            Intra module refs:   ?Subroutine2
    -------------------------------------------------------------------------
<BANKED_CODE,XDATA_ROM_C_FLASH> 1 (was BANKED_CODE)
  Relative segment, address: CODE 00009635 - 0000963A (0x6 bytes), align: 0
  Segment part 35.            Intra module refs:   halRfGetRandomByte::?relay
           ENTRY                   ADDRESS         REF BY
           =====                   =======         ======
           halRfGetRandomByte      00009635 
    -------------------------------------------------------------------------
<BANKED_CODE,XDATA_ROM_C_FLASH> 1 (was BANKED_CODE)
  Relative segment, address: CODE 0000963B - 00009645 (0xb bytes), align: 0
  Segment part 37.            Intra module refs:   halRfGetRandomWord::?relay
           ENTRY                   ADDRESS         REF BY
           =====                   =======         ======
           halRfGetRandomWord      0000963B 
    -------------------------------------------------------------------------
<BANKED_CODE,XDATA_ROM_C_FLASH> 1 (was BANKED_CODE)
  Relative segment, address: CODE 00009646 - 00009651 (0xc bytes), align: 0
  Segment part 39.            Intra module refs:   halRfGetRandomByte
                                                   halRfGetRandomWord
           LOCAL                   ADDRESS         
           =====                   =======         
           ?Subroutine4            00009646 
    -------------------------------------------------------------------------
<BANKED_CODE,XDATA_ROM_C_FLASH> 1 (was BANKED_CODE)
  Relative segment, address: CODE 00009652 - 0000965A (0x9 bytes), align: 0
  Segment part 40.            Intra module refs:   halRfGetRssiOffset::?relay
           ENTRY                   ADDRESS         REF BY
           =====                   =======         ======
           halRfGetRssiOffset      00009652 
               ISTACK = 00000000 ( 00000002 )
    -------------------------------------------------------------------------
<BANKED_CODE,XDATA_ROM_C_FLASH> 1 (was BANKED_CODE)
  Relative segment, address: CODE 0000965B - 0000966B (0x11 bytes), align: 0
  Segment part 42.            Intra module refs:   halRfSetChannel::?relay
           ENTRY                   ADDRESS         REF BY
           =====                   =======         ======
           halRfSetChannel         0000965B 
               ISTACK = 00000000 ( 00000002 )
    -------------------------------------------------------------------------
<BANKED_CODE,XDATA_ROM_C_FLASH> 1 (was BANKED_CODE)
  Relative segment, address: CODE 0000966C - 0000969E (0x33 bytes), align: 0
  Segment part 48.            Intra module refs:   halRfSetTxPower::?relay
           ENTRY                   ADDRESS         REF BY
           =====                   =======         ======
           halRfSetTxPower         0000966C 
               ISTACK = 00000000 ( 00000002 )
    -------------------------------------------------------------------------
<BANKED_CODE,XDATA_ROM_C_FLASH> 1 (was BANKED_CODE)
  Relative segment, address: CODE 0000969F - 000096B8 (0x1a bytes), align: 0
  Segment part 52.            Intra module refs:   halRfWriteTxBuf::?relay
           ENTRY                   ADDRESS         REF BY
           =====                   =======         ======
           halRfWriteTxBuf         0000969F 
               ISTACK = 00000000 ( 00000002 )
    -------------------------------------------------------------------------
<BANKED_CODE,XDATA_ROM_C_FLASH> 1 (was BANKED_CODE)
  Relative segment, address: CODE 000096B9 - 000096B9 (0x1 bytes), align: 0
  Segment part 55.            Intra module refs:   halRfSetChannel
    -------------------------------------------------------------------------
<BANKED_CODE,XDATA_ROM_C_FLASH> 1 (was BANKED_CODE)
  Relative segment, address: CODE 000096BA - 000096C0 (0x7 bytes), align: 0
  Segment part 56.            Intra module refs:   Segment part 30
                                                   Segment part 55
                                                   halRfDisableRxInterrupt
                                                   halRfEnableRxInterrupt
                                                   halRfInit
                                                   halRfReadRxBuf
                                                   halRfRxInterruptConfig
                                                   halRfSetTxPower
                                                   halRfTransmit
                                                   halRfWaitTransceiverReady
                                                   halRfWriteTxBuf
    -------------------------------------------------------------------------
<BANKED_CODE,XDATA_ROM_C_FLASH> 1 (was BANKED_CODE)
  Relative segment, address: CODE 000096C1 - 000096CD (0xd bytes), align: 0
  Segment part 59.            Intra module refs:   halRfWriteTxBuf
           LOCAL                   ADDRESS         
           =====                   =======         
           ?Subroutine5            000096C1 
    -------------------------------------------------------------------------
<BANKED_CODE,XDATA_ROM_C_FLASH> 1 (was BANKED_CODE)
  Relative segment, address: CODE 000096CE - 000096E5 (0x18 bytes), align: 0
  Segment part 60.            Intra module refs:   halRfReadRxBuf::?relay
           ENTRY                   ADDRESS         REF BY
           =====                   =======         ======
           halRfReadRxBuf          000096CE 
               ISTACK = 00000000 ( 00000003 )
    -------------------------------------------------------------------------
<BANKED_CODE,XDATA_ROM_C_FLASH> 1 (was BANKED_CODE)
  Relative segment, address: CODE 000096E6 - 0000973B (0x56 bytes), align: 0
  Segment part 67.            Intra module refs:   halRfTransmit::?relay
           ENTRY                   ADDRESS         REF BY
           =====                   =======         ======
           halRfTransmit           000096E6 
               XSTACK = 00000000 ( 00000001 )
               ISTACK = 00000000 ( 00000002 )
    -------------------------------------------------------------------------
<BANKED_CODE,XDATA_ROM_C_FLASH> 1 (was BANKED_CODE)
  Relative segment, address: CODE 0000973C - 00009744 (0x9 bytes), align: 0
  Segment part 69.            Intra module refs:   halRfReceiveOn::?relay
           ENTRY                   ADDRESS         REF BY
           =====                   =======         ======
           halRfReceiveOn          0000973C 
    -------------------------------------------------------------------------
<BANKED_CODE,XDATA_ROM_C_FLASH> 1 (was BANKED_CODE)
  Relative segment, address: CODE 00009745 - 0000975E (0x1a bytes), align: 0
  Segment part 73.            Intra module refs:   halRfDisableRxInterrupt::?relay
           ENTRY                   ADDRESS         REF BY
           =====                   =======         ======
           halRfDisableRxInterrupt
                                   00009745 
               ISTACK = 00000000 ( 00000002 )
    -------------------------------------------------------------------------
<BANKED_CODE,XDATA_ROM_C_FLASH> 1 (was BANKED_CODE)
  Relative segment, address: CODE 0000975F - 00009768 (0xa bytes), align: 0
  Segment part 75.            Intra module refs:   halRfEnableRxInterrupt::?relay
           ENTRY                   ADDRESS         REF BY
           =====                   =======         ======
           halRfEnableRxInterrupt
                                   0000975F 
               ISTACK = 00000000 ( 00000002 )
    -------------------------------------------------------------------------
<BANKED_CODE,XDATA_ROM_C_FLASH> 1 (was BANKED_CODE)
  Relative segment, address: CODE 00009769 - 0000977C (0x14 bytes), align: 0
  Segment part 77.            Intra module refs:   halRfEnableRxInterrupt
                                                   halRfInit
           LOCAL                   ADDRESS         
           =====                   =======         
           ?Subroutine3            00009769 
    -------------------------------------------------------------------------
<BANKED_CODE,XDATA_ROM_C_FLASH> 1 (was BANKED_CODE)
  Relative segment, address: CODE 0000977D - 00009797 (0x1b bytes), align: 0
  Segment part 78.            Intra module refs:   halRfRxInterruptConfig::?relay
           ENTRY                   ADDRESS         REF BY
           =====                   =======         ======
           halRfRxInterruptConfig
                                   0000977D 
               ISTACK = 00000000 ( 00000002 )
    -------------------------------------------------------------------------
<BANKED_CODE,XDATA_ROM_C_FLASH> 1 (was BANKED_CODE)
  Relative segment, address: CODE 00009798 - 000097A6 (0xf bytes), align: 0
  Segment part 80.            Intra module refs:   halRfWaitTransceiverReady::?relay
           ENTRY                   ADDRESS         REF BY
           =====                   =======         ======
           halRfWaitTransceiverReady
                                   00009798 
               ISTACK = 00000000 ( 00000002 )
    -------------------------------------------------------------------------
<BANKED_CODE,BANK_RELAYS..> 1 (was NEAR_CODE)
  Relative segment, address: CODE 0000283D - 0000287D (0x41 bytes), align: 0
  Segment part 82.            Intra module refs:   rfIsr::??INTVEC 131
           ENTRY                   ADDRESS         REF BY
           =====                   =======         ======
           rfIsr                   0000283D 
               interrupt function
               XSTACK = 00000000 ( 0000000E )
    -------------------------------------------------------------------------
<BANKED_CODE,BANK_RELAYS..> 1 (was NEAR_CODE)
  Relative segment, address: CODE 0000287E - 000028B8 (0x3b bytes), align: 0
  Segment part 83.            Intra module refs:   rfErrIsr::??INTVEC 3
           ENTRY                   ADDRESS         REF BY
           =====                   =======         ======
           rfErrIsr                0000287E 
               interrupt function
               ISTACK = 00000000 ( 00000006 )
    -------------------------------------------------------------------------
INTVEC
  Common segment, address: CODE 00002000 - 00002005 (0x6 bytes), align: 0
  Segment part 15. ROOT.
           ENTRY                   ADDRESS         REF BY
           =====                   =======         ======
           rfErrIsr::??INTVEC 3    00002003 
    -------------------------------------------------------------------------
INTVEC
  Common segment, address: CODE 00002000 - 00002085 (0x86 bytes), align: 0
  Segment part 16. ROOT.
           ENTRY                   ADDRESS         REF BY
           =====                   =======         ======
           rfIsr::??INTVEC 131     00002083 
    -------------------------------------------------------------------------
XDATA_ID
  Relative segment, address: CODE 00002092 - 00002092 (0x1 bytes), align: 0
  Segment part 24.            Intra module refs:   rssiOffset
    -------------------------------------------------------------------------
<BANKED_CODE,BANK_RELAYS..> 1 (was BANK_RELAYS)
  Relative segment, address: CODE 000031C7 - 000031CC (0x6 bytes), align: 0
  Segment part 26.
           ENTRY                   ADDRESS         REF BY
           =====                   =======         ======
           halRfInit::?relay       000031C7        sMacInit (sMac)
    -------------------------------------------------------------------------
<BANKED_CODE,BANK_RELAYS..> 1 (was BANK_RELAYS)
  Relative segment, address: CODE 000031C1 - 000031C6 (0x6 bytes), align: 0
  Segment part 36.
           ENTRY                   ADDRESS         REF BY
           =====                   =======         ======
           halRfGetRandomByte::?relay
                                   000031C1        PhySend (sMac)
                                                   sMacInit (sMac)
                                                   sNwkInit (sNwk)
    -------------------------------------------------------------------------
<BANKED_CODE,BANK_RELAYS..> 1 (was BANK_RELAYS)
  Relative segment, address: CODE 000031AF - 000031B4 (0x6 bytes), align: 0
  Segment part 38.
           ENTRY                   ADDRESS         REF BY
           =====                   =======         ======
           halRfGetRandomWord::?relay
                                   000031AF        sNwkTask (sNwk)
    -------------------------------------------------------------------------
<BANKED_CODE,BANK_RELAYS..> 1 (was BANK_RELAYS)
  Relative segment, address: CODE 000031A9 - 000031AE (0x6 bytes), align: 0
  Segment part 41.
           ENTRY                   ADDRESS         REF BY
           =====                   =======         ======
           halRfGetRssiOffset::?relay
                                   000031A9        PhyDataIndication (sMac)
    -------------------------------------------------------------------------
<BANKED_CODE,BANK_RELAYS..> 1 (was BANK_RELAYS)
  Relative segment, address: CODE 000031A3 - 000031A8 (0x6 bytes), align: 0
  Segment part 43.
           ENTRY                   ADDRESS         REF BY
           =====                   =======         ======
           halRfSetChannel::?relay
                                   000031A3        sMacInit (sMac)
                                                   sMacTask (sMac)
    -------------------------------------------------------------------------
<BANKED_CODE,BANK_RELAYS..> 1 (was BANK_RELAYS)
  Relative segment, address: CODE 0000319D - 000031A2 (0x6 bytes), align: 0
  Segment part 49.
           ENTRY                   ADDRESS         REF BY
           =====                   =======         ======
           halRfSetTxPower::?relay
                                   0000319D        sMacInit (sMac)
    -------------------------------------------------------------------------
<BANKED_CODE,BANK_RELAYS..> 1 (was BANK_RELAYS)
  Relative segment, address: CODE 00003197 - 0000319C (0x6 bytes), align: 0
  Segment part 53.
           ENTRY                   ADDRESS         REF BY
           =====                   =======         ======
           halRfWriteTxBuf::?relay
                                   00003197        PhySend (sMac)
    -------------------------------------------------------------------------
<BANKED_CODE,BANK_RELAYS..> 1 (was BANK_RELAYS)
  Relative segment, address: CODE 00003191 - 00003196 (0x6 bytes), align: 0
  Segment part 61.
           ENTRY                   ADDRESS         REF BY
           =====                   =======         ======
           halRfReadRxBuf::?relay
                                   00003191        PhyDataIndication (sMac)
    -------------------------------------------------------------------------
<BANKED_CODE,BANK_RELAYS..> 1 (was BANK_RELAYS)
  Relative segment, address: CODE 0000318B - 00003190 (0x6 bytes), align: 0
  Segment part 68.
           ENTRY                   ADDRESS         REF BY
           =====                   =======         ======
           halRfTransmit::?relay   0000318B        PhySend (sMac)
    -------------------------------------------------------------------------
<BANKED_CODE,BANK_RELAYS..> 1 (was BANK_RELAYS)
  Relative segment, address: CODE 00003185 - 0000318A (0x6 bytes), align: 0
  Segment part 70.
           ENTRY                   ADDRESS         REF BY
           =====                   =======         ======
           halRfReceiveOn::?relay
                                   00003185        sMacInit (sMac)
    -------------------------------------------------------------------------
<BANKED_CODE,BANK_RELAYS..> 1 (was BANK_RELAYS)
  Relative segment, address: CODE 000030D7 - 000030DC (0x6 bytes), align: 0
  Segment part 74.
           ENTRY                   ADDRESS         REF BY
           =====                   =======         ======
           halRfDisableRxInterrupt::?relay
                                   000030D7        PhySend (sMac)
                                                   RfRxIndicateIsr (sMac)
    -------------------------------------------------------------------------
<BANKED_CODE,BANK_RELAYS..> 1 (was BANK_RELAYS)
  Relative segment, address: CODE 000032B7 - 000032BC (0x6 bytes), align: 0
  Segment part 76.
           ENTRY                   ADDRESS         REF BY
           =====                   =======         ======
           halRfEnableRxInterrupt::?relay
                                   000032B7        PhySend (sMac)
                                                   RfRxIndicateIsr (sMac)
    -------------------------------------------------------------------------
<BANKED_CODE,BANK_RELAYS..> 1 (was BANK_RELAYS)
  Relative segment, address: CODE 0000327B - 00003280 (0x6 bytes), align: 0
  Segment part 79.
           ENTRY                   ADDRESS         REF BY
           =====                   =======         ======
           halRfRxInterruptConfig::?relay
                                   0000327B        sMacInit (sMac)
    -------------------------------------------------------------------------
<BANKED_CODE,BANK_RELAYS..> 1 (was BANK_RELAYS)
  Relative segment, address: CODE 00003275 - 0000327A (0x6 bytes), align: 0
  Segment part 81.
           ENTRY                   ADDRESS         REF BY
           =====                   =======         ======
           halRfWaitTransceiverReady::?relay
                                   00003275        PhySend (sMac)

    *************************************************************************

  FILE NAME : D:\ZbNode\Proj\ZbNode\ide\Release\Obj\hal_startup.r51
  PROGRAM MODULE, NAME : hal_startup

  SEGMENTS IN THE MODULE
  ======================
<BANKED_CODE,BANK_RELAYS..> 1 (was CSTART)
  Relative segment, address: CODE 0000300E - 00003018 (0xb bytes), align: 0
  Segment part 7. ROOT.
           ENTRY                   ADDRESS         REF BY
           =====                   =======         ======
           __low_level_init        0000300E        __low_level_init_call (?cmain)

    *************************************************************************

  FILE NAME : D:\ZbNode\Proj\ZbNode\ide\Release\Obj\hal_time.r51
  PROGRAM MODULE, NAME : hal_time

  SEGMENTS IN THE MODULE
  ======================
SFR_AN
  Relative segment, address: DATA 00000095 - 00000095 (0x1 bytes), align: 0
  Segment part 1. ROOT.       Intra module refs:   SleepTimeCompSet
                                                   TickGet
           ENTRY                   ADDRESS         REF BY
           =====                   =======         ======
           ST0                     00000095 
    -------------------------------------------------------------------------
SFR_AN
  Relative segment, address: DATA 00000096 - 00000096 (0x1 bytes), align: 0
  Segment part 2. ROOT.       Intra module refs:   SleepTimeCompSet
                                                   TickGet
           ENTRY                   ADDRESS         REF BY
           =====                   =======         ======
           ST1                     00000096 
    -------------------------------------------------------------------------
SFR_AN
  Relative segment, address: DATA 00000097 - 00000097 (0x1 bytes), align: 0
  Segment part 3. ROOT.       Intra module refs:   SleepTimeCompSet
                                                   TickGet
           ENTRY                   ADDRESS         REF BY
           =====                   =======         ======
           ST2                     00000097 
    -------------------------------------------------------------------------
SFR_AN
  Relative segment, address: DATA 000000AD - 000000AD (0x1 bytes), align: 0
  Segment part 5. ROOT.       Intra module refs:   SleepTimeCompSet
           ENTRY                   ADDRESS         REF BY
           =====                   =======         ======
           STLOAD                  000000AD 
    -------------------------------------------------------------------------
SFR_AN
  Relative segment, address: DATA 000000C0 - 000000C0 (0x1 bytes), align: 0
  Segment part 6. ROOT.       Intra module refs:   ST_ISR
                                                   SleepTimeCompSet
           ENTRY                   ADDRESS         REF BY
           =====                   =======         ======
           _A_IRCON                000000C0 
           LOCAL                   ADDRESS         
           =====                   =======         
           IRCON                   000000C0 
    -------------------------------------------------------------------------
SFR_AN
  Relative segment, address: DATA 000000E5 - 000000E5 (0x1 bytes), align: 0
  Segment part 7. ROOT.       Intra module refs:   SleepTimeCompSet
           ENTRY                   ADDRESS         REF BY
           =====                   =======         ======
           T1CCTL0                 000000E5 
    -------------------------------------------------------------------------
XDATA_Z
  Relative segment, address: XDATA 0000039B - 0000039E (0x4 bytes), align: 0
  Segment part 14.            Intra module refs:   SleepTimeCompSet
                                                   TickGet
           LOCAL                   ADDRESS         
           =====                   =======         
           tickExt                 0000039B 
    -------------------------------------------------------------------------
XDATA_Z
  Relative segment, address: XDATA 0000039F - 000003A0 (0x2 bytes), align: 0
  Segment part 15.            Intra module refs:   ST_ISR
                                                   SleepTimeCompCallbackSet
           LOCAL                   ADDRESS         
           =====                   =======         
           pSTCompIntHandler       0000039F 
    -------------------------------------------------------------------------
<BANKED_CODE,XDATA_ROM_C_FLASH> 1 (was BANKED_CODE)
  Relative segment, address: CODE 00009FD0 - 00009FD6 (0x7 bytes), align: 0
  Segment part 20.            Intra module refs:   McuSleepTimerInit::?relay
           ENTRY                   ADDRESS         REF BY
           =====                   =======         ======
           McuSleepTimerInit       00009FD0 
    -------------------------------------------------------------------------
<BANKED_CODE,XDATA_ROM_C_FLASH> 1 (was BANKED_CODE)
  Relative segment, address: CODE 00009FD7 - 0000A054 (0x7e bytes), align: 0
  Segment part 22.            Intra module refs:   TickGet::?relay
           ENTRY                   ADDRESS         REF BY
           =====                   =======         ======
           TickGet                 00009FD7 
               XSTACK = 00000000 ( 00000010 )
    -------------------------------------------------------------------------
<BANKED_CODE,XDATA_ROM_C_FLASH> 1 (was BANKED_CODE)
  Relative segment, address: CODE 0000A055 - 0000A060 (0xc bytes), align: 0
  Segment part 24.            Intra module refs:   TickGet
           LOCAL                   ADDRESS         
           =====                   =======         
           ?Subroutine0            0000A055 
    -------------------------------------------------------------------------
<BANKED_CODE,XDATA_ROM_C_FLASH> 1 (was BANKED_CODE)
  Relative segment, address: CODE 0000A061 - 0000A065 (0x5 bytes), align: 0
  Segment part 25.            Intra module refs:   ?Subroutine0
                                                   SleepTimeCompSet
    -------------------------------------------------------------------------
XDATA_Z
  Relative segment, address: XDATA 000003A1 - 000003A4 (0x4 bytes), align: 0
  Segment part 16.            Intra module refs:   SleepTimeCompSet
                                                   TickGet
           LOCAL                   ADDRESS         
           =====                   =======         
           TickGet::preTick        000003A1 
    -------------------------------------------------------------------------
<BANKED_CODE,XDATA_ROM_C_FLASH> 1 (was BANKED_CODE)
  Relative segment, address: CODE 0000A066 - 0000A12F (0xca bytes), align: 0
  Segment part 28.            Intra module refs:   SleepTimeCompSet::?relay
           ENTRY                   ADDRESS         REF BY
           =====                   =======         ======
           SleepTimeCompSet        0000A066 
               XSTACK = 00000000 ( 00000014 )
    -------------------------------------------------------------------------
<BANKED_CODE,XDATA_ROM_C_FLASH> 1 (was BANKED_CODE)
  Relative segment, address: CODE 0000A130 - 0000A142 (0x13 bytes), align: 0
  Segment part 30.            Intra module refs:   SleepTimeCompCallbackSet::?relay
           ENTRY                   ADDRESS         REF BY
           =====                   =======         ======
           SleepTimeCompCallbackSet
                                   0000A130 
               ISTACK = 00000000 ( 00000002 )
    -------------------------------------------------------------------------
<BANKED_CODE,BANK_RELAYS..> 1 (was NEAR_CODE)
  Relative segment, address: CODE 00002C59 - 00002C90 (0x38 bytes), align: 0
  Segment part 32.            Intra module refs:   ST_ISR::??INTVEC 43
           ENTRY                   ADDRESS         REF BY
           =====                   =======         ======
           ST_ISR                  00002C59 
               interrupt function
               XSTACK = 00000000 ( 0000000E )
    -------------------------------------------------------------------------
INTVEC
  Common segment, address: CODE 00002000 - 0000202D (0x2e bytes), align: 0
  Segment part 8. ROOT.
           ENTRY                   ADDRESS         REF BY
           =====                   =======         ======
           ST_ISR::??INTVEC 43     0000202B 
    -------------------------------------------------------------------------
<XDATA_ROM_C> 1 (was XDATA_ROM_C)
  Relative segment, address: CONST 00008341 - 00008344 (0x4 bytes), align: 0
  Segment part 18.            Intra module refs:   SleepTimeCompSet
                                                   TickGet
           ENTRY                   ADDRESS         REF BY
           =====                   =======         ======
           __Constant_1            00008341 
    -------------------------------------------------------------------------
<XDATA_ROM_C> 1 (was XDATA_ROM_C)
  Relative segment, address: CONST 00008345 - 00008348 (0x4 bytes), align: 0
  Segment part 19.            Intra module refs:   SleepTimeCompSet
                                                   TickGet
           ENTRY                   ADDRESS         REF BY
           =====                   =======         ======
           __Constant_1000000      00008345 
    -------------------------------------------------------------------------
<BANKED_CODE,BANK_RELAYS..> 1 (was BANK_RELAYS)
  Relative segment, address: CODE 0000326F - 00003274 (0x6 bytes), align: 0
  Segment part 21.
           ENTRY                   ADDRESS         REF BY
           =====                   =======         ======
           McuSleepTimerInit::?relay
                                   0000326F        SysTimerInit (sysTimer)
    -------------------------------------------------------------------------
<BANKED_CODE,BANK_RELAYS..> 1 (was BANK_RELAYS)
  Relative segment, address: CODE 00003269 - 0000326E (0x6 bytes), align: 0
  Segment part 23.
           ENTRY                   ADDRESS         REF BY
           =====                   =======         ======
           TickGet::?relay         00003269        BC95InitAT (BC95)
                                                   BC95PollingAT (BC95)
                                                   PhyDataIndication (sMac)
                                                   PhySend (sMac)
                                                   SysTimerTask (sysTimer)
                                                   atCmdStart (netMngr)
                                                   sMacTask (sMac)
                                                   sNwkTask (sNwk)
    -------------------------------------------------------------------------
<BANKED_CODE,BANK_RELAYS..> 1 (was BANK_RELAYS)
  Relative segment, address: CODE 00003263 - 00003268 (0x6 bytes), align: 0
  Segment part 29.
           ENTRY                   ADDRESS         REF BY
           =====                   =======         ======
           SleepTimeCompSet::?relay
                                   00003263        SysTimerTask (sysTimer)
    -------------------------------------------------------------------------
<BANKED_CODE,BANK_RELAYS..> 1 (was BANK_RELAYS)
  Relative segment, address: CODE 0000325D - 00003262 (0x6 bytes), align: 0
  Segment part 31.
           ENTRY                   ADDRESS         REF BY
           =====                   =======         ======
           SleepTimeCompCallbackSet::?relay
                                   0000325D        SysTimerInit (sysTimer)
    -------------------------------------------------------------------------
<BANKED_CODE,XDATA_ROM_C_FLASH> 1 (was XDATA_ROM_C_FLASH)
  Relative segment, address: CODE 00008341 - 00008344 (0x4 bytes), align: 0
  Segment part 33.            Intra module refs:   __Constant_1
    -------------------------------------------------------------------------
<BANKED_CODE,XDATA_ROM_C_FLASH> 1 (was XDATA_ROM_C_FLASH)
  Relative segment, address: CODE 00008345 - 00008348 (0x4 bytes), align: 0
  Segment part 34.            Intra module refs:   __Constant_1000000

    *************************************************************************

  FILE NAME : D:\ZbNode\Proj\ZbNode\ide\Release\Obj\hal_uart.r51
  PROGRAM MODULE, NAME : hal_uart

  SEGMENTS IN THE MODULE
  ======================
SFR_AN
  Relative segment, address: DATA 00000086 - 00000086 (0x1 bytes), align: 0
  Segment part 1. ROOT.
           ENTRY                   ADDRESS         REF BY
           =====                   =======         ======
           U0CSR                   00000086 
    -------------------------------------------------------------------------
SFR_AN
  Relative segment, address: DATA 00000088 - 00000088 (0x1 bytes), align: 0
  Segment part 2. ROOT.       Intra module refs:   UART1_RX_ISR
           ENTRY                   ADDRESS         REF BY
           =====                   =======         ======
           _A_TCON                 00000088 
           LOCAL                   ADDRESS         
           =====                   =======         
           TCON                    00000088 
    -------------------------------------------------------------------------
SFR_AN
  Relative segment, address: DATA 000000C1 - 000000C1 (0x1 bytes), align: 0
  Segment part 4. ROOT.
           ENTRY                   ADDRESS         REF BY
           =====                   =======         ======
           U0DBUF                  000000C1 
    -------------------------------------------------------------------------
SFR_AN
  Relative segment, address: DATA 000000F8 - 000000F8 (0x1 bytes), align: 0
  Segment part 7. ROOT.       Intra module refs:   halUartInit
                                                   halUartSend
           ENTRY                   ADDRESS         REF BY
           =====                   =======         ======
           _A_U1CSR                000000F8 
           LOCAL                   ADDRESS         
           =====                   =======         
           U1CSR                   000000F8 
    -------------------------------------------------------------------------
SFR_AN
  Relative segment, address: DATA 000000F9 - 000000F9 (0x1 bytes), align: 0
  Segment part 8. ROOT.       Intra module refs:   UART1_RX_ISR
                                                   halUartSend
           ENTRY                   ADDRESS         REF BY
           =====                   =======         ======
           U1DBUF                  000000F9 
    -------------------------------------------------------------------------
SFR_AN
  Relative segment, address: DATA 000000FA - 000000FA (0x1 bytes), align: 0
  Segment part 9. ROOT.       Intra module refs:   halUartInit
           ENTRY                   ADDRESS         REF BY
           =====                   =======         ======
           U1BAUD                  000000FA 
    -------------------------------------------------------------------------
SFR_AN
  Relative segment, address: DATA 000000FB - 000000FB (0x1 bytes), align: 0
  Segment part 10. ROOT.      Intra module refs:   halUartInit
           ENTRY                   ADDRESS         REF BY
           =====                   =======         ======
           U1UCR                   000000FB 
    -------------------------------------------------------------------------
SFR_AN
  Relative segment, address: DATA 000000FC - 000000FC (0x1 bytes), align: 0
  Segment part 11. ROOT.      Intra module refs:   halUartInit
           ENTRY                   ADDRESS         REF BY
           =====                   =======         ======
           U1GCR                   000000FC 
    -------------------------------------------------------------------------
XDATA_Z
  Relative segment, address: XDATA 000003A5 - 000003C9 (0x25 bytes), align: 0
  Segment part 19.            Intra module refs:   ?Subroutine2
                                                   UART1_RX_ISR
                                                   halUartInit
                                                   halUartRecv
                                                   halUartRxCbSet
           ENTRY                   ADDRESS         REF BY
           =====                   =======         ======
           Uart1Info               000003A5 
    -------------------------------------------------------------------------
<BANKED_CODE,BANK_RELAYS..> 1 (was CODE_C)
  Relative segment, address: CODE 000032EE - 00003305 (0x18 bytes), align: 0
  Segment part 20.            Intra module refs:   halUartInit
           LOCAL                   ADDRESS         
           =====                   =======         
           baudRate                000032EE 
    -------------------------------------------------------------------------
<BANKED_CODE,XDATA_ROM_C_FLASH> 1 (was BANKED_CODE)
  Relative segment, address: CODE 00009B20 - 00009BC6 (0xa7 bytes), align: 0
  Segment part 21.            Intra module refs:   halUartInit::?relay
           ENTRY                   ADDRESS         REF BY
           =====                   =======         ======
           halUartInit             00009B20 
               ISTACK = 00000000 ( 00000002 )
    -------------------------------------------------------------------------
<BANKED_CODE,XDATA_ROM_C_FLASH> 1 (was BANKED_CODE)
  Relative segment, address: CODE 00009BC7 - 00009BCD (0x7 bytes), align: 0
  Segment part 23.            Intra module refs:   halUartInit
                                                   halUartRxCbSet
           LOCAL                   ADDRESS         
           =====                   =======         
           ?Subroutine0            00009BC7 
    -------------------------------------------------------------------------
<BANKED_CODE,XDATA_ROM_C_FLASH> 1 (was BANKED_CODE)
  Relative segment, address: CODE 00009BCE - 00009BEA (0x1d bytes), align: 0
  Segment part 24.            Intra module refs:   halUartRxCbSet::?relay
           ENTRY                   ADDRESS         REF BY
           =====                   =======         ======
           halUartRxCbSet          00009BCE 
               ISTACK = 00000000 ( 00000002 )
    -------------------------------------------------------------------------
<BANKED_CODE,XDATA_ROM_C_FLASH> 1 (was BANKED_CODE)
  Relative segment, address: CODE 00009BEB - 00009C41 (0x57 bytes), align: 0
  Segment part 26.            Intra module refs:   halUartSend::?relay
           ENTRY                   ADDRESS         REF BY
           =====                   =======         ======
           halUartSend             00009BEB 
               XSTACK = 00000000 ( 00000009 )
    -------------------------------------------------------------------------
<BANKED_CODE,XDATA_ROM_C_FLASH> 1 (was BANKED_CODE)
  Relative segment, address: CODE 00009C42 - 00009C96 (0x55 bytes), align: 0
  Segment part 28.            Intra module refs:   halUartRecv::?relay
           ENTRY                   ADDRESS         REF BY
           =====                   =======         ======
           halUartRecv             00009C42 
               XSTACK = 00000000 ( 0000000A )
               ISTACK = 00000000 ( 00000001 )
    -------------------------------------------------------------------------
<BANKED_CODE,XDATA_ROM_C_FLASH> 1 (was BANKED_CODE)
  Relative segment, address: CODE 00009C97 - 00009C9B (0x5 bytes), align: 0
  Segment part 30.            Intra module refs:   halUartRecv
           LOCAL                   ADDRESS         
           =====                   =======         
           ?Subroutine1            00009C97 
    -------------------------------------------------------------------------
<BANKED_CODE,XDATA_ROM_C_FLASH> 1 (was BANKED_CODE)
  Relative segment, address: CODE 00009C9C - 00009CB8 (0x1d bytes), align: 0
  Segment part 35.            Intra module refs:   halUartRecv
           LOCAL                   ADDRESS         
           =====                   =======         
           ?Subroutine2            00009C9C 
    -------------------------------------------------------------------------
<BANKED_CODE,BANK_RELAYS..> 1 (was NEAR_CODE)
  Relative segment, address: CODE 00002A0C - 00002A6B (0x60 bytes), align: 0
  Segment part 36.            Intra module refs:   UART1_RX_ISR::??INTVEC 27
           ENTRY                   ADDRESS         REF BY
           =====                   =======         ======
           UART1_RX_ISR            00002A0C 
               interrupt function
               XSTACK = 00000000 ( 0000000F )
               ISTACK = 00000000 ( 00000001 )
    -------------------------------------------------------------------------
INTVEC
  Common segment, address: CODE 00002000 - 0000201D (0x1e bytes), align: 0
  Segment part 13. ROOT.
           ENTRY                   ADDRESS         REF BY
           =====                   =======         ======
           UART1_RX_ISR::??INTVEC 27
                                   0000201B 
    -------------------------------------------------------------------------
<BANKED_CODE,BANK_RELAYS..> 1 (was BANK_RELAYS)
  Relative segment, address: CODE 00003257 - 0000325C (0x6 bytes), align: 0
  Segment part 22.
           ENTRY                   ADDRESS         REF BY
           =====                   =======         ======
           halUartInit::?relay     00003257        netMngrInit (netMngr)
    -------------------------------------------------------------------------
<BANKED_CODE,BANK_RELAYS..> 1 (was BANK_RELAYS)
  Relative segment, address: CODE 00003251 - 00003256 (0x6 bytes), align: 0
  Segment part 25.
           ENTRY                   ADDRESS         REF BY
           =====                   =======         ======
           halUartRxCbSet::?relay
                                   00003251        netMngrInit (netMngr)
    -------------------------------------------------------------------------
<BANKED_CODE,BANK_RELAYS..> 1 (was BANK_RELAYS)
  Relative segment, address: CODE 0000324B - 00003250 (0x6 bytes), align: 0
  Segment part 27.
           ENTRY                   ADDRESS         REF BY
           =====                   =======         ======
           halUartSend::?relay     0000324B        AppTask (Application)
                                                   atCmdStart (netMngr)
    -------------------------------------------------------------------------
<BANKED_CODE,BANK_RELAYS..> 1 (was BANK_RELAYS)
  Relative segment, address: CODE 000031D3 - 000031D8 (0x6 bytes), align: 0
  Segment part 29.
           ENTRY                   ADDRESS         REF BY
           =====                   =======         ======
           halUartRecv::?relay     000031D3        netMngrTask (netMngr)

    *************************************************************************

  FILE NAME : D:\ZbNode\Proj\ZbNode\ide\Release\Obj\kernel.r51
  PROGRAM MODULE, NAME : kernel

  SEGMENTS IN THE MODULE
  ======================
XDATA_Z
  Relative segment, address: XDATA 000003CA - 00000441 (0x78 bytes), align: 0
  Segment part 7.             Intra module refs:   BosEventSend
                                                   BosInit
                                                   BosScheduler
           ENTRY                   ADDRESS         REF BY
           =====                   =======         ======
           BosTaskTable            000003CA 
    -------------------------------------------------------------------------
XDATA_Z
  Relative segment, address: XDATA 00000442 - 00000442 (0x1 bytes), align: 0
  Segment part 8.             Intra module refs:   BosInit
                                                   BosScheduler
           LOCAL                   ADDRESS         
           =====                   =======         
           BosTaskTabRead          00000442 
    -------------------------------------------------------------------------
XDATA_Z
  Relative segment, address: XDATA 00000443 - 00000443 (0x1 bytes), align: 0
  Segment part 9.             Intra module refs:   BosEventSend
                                                   BosInit
           LOCAL                   ADDRESS         
           =====                   =======         
           BosTaskTabWrite         00000443 
    -------------------------------------------------------------------------
XDATA_Z
  Relative segment, address: XDATA 00000444 - 00000444 (0x1 bytes), align: 0
  Segment part 10.            Intra module refs:   BosEventSend
                                                   BosInit
                                                   BosScheduler
           LOCAL                   ADDRESS         
           =====                   =======         
           TaskNum                 00000444 
    -------------------------------------------------------------------------
<BANKED_CODE,XDATA_ROM_C_FLASH> 1 (was BANKED_CODE)
  Relative segment, address: CODE 0000A143 - 0000A179 (0x37 bytes), align: 0
  Segment part 11.            Intra module refs:   BosInit::?relay
           ENTRY                   ADDRESS         REF BY
           =====                   =======         ======
           BosInit                 0000A143 
               ISTACK = 00000000 ( 00000002 )
    -------------------------------------------------------------------------
<BANKED_CODE,XDATA_ROM_C_FLASH> 1 (was BANKED_CODE)
  Relative segment, address: CODE 0000A17A - 0000A1D4 (0x5b bytes), align: 0
  Segment part 13.            Intra module refs:   BosEventSend::?relay
           ENTRY                   ADDRESS         REF BY
           =====                   =======         ======
           BosEventSend            0000A17A 
               XSTACK = 00000000 ( 00000009 )
               ISTACK = 00000000 ( 00000001 )
    -------------------------------------------------------------------------
<BANKED_CODE,XDATA_ROM_C_FLASH> 1 (was BANKED_CODE)
  Relative segment, address: CODE 0000A1D5 - 0000A260 (0x8c bytes), align: 0
  Segment part 15.            Intra module refs:   BosScheduler::?relay
           ENTRY                   ADDRESS         REF BY
           =====                   =======         ======
           BosScheduler            0000A1D5 
               XSTACK = 00000000 ( 0000000A )
    -------------------------------------------------------------------------
<BANKED_CODE,BANK_RELAYS..> 1 (was BANK_RELAYS)
  Relative segment, address: CODE 000031CD - 000031D2 (0x6 bytes), align: 0
  Segment part 12.
           ENTRY                   ADDRESS         REF BY
           =====                   =======         ======
           BosInit::?relay         000031CD        main (startup)
    -------------------------------------------------------------------------
<BANKED_CODE,BANK_RELAYS..> 1 (was BANK_RELAYS)
  Relative segment, address: CODE 00003143 - 00003148 (0x6 bytes), align: 0
  Segment part 14.
           ENTRY                   ADDRESS         REF BY
           =====                   =======         ======
           BosEventSend::?relay    00003143        ?Subroutine0 (Application)
                                                   ?Subroutine0 (sMac)
                                                   AckTimeOutCallBack (sMac)
                                                   PhyDataIndication (sMac)
                                                   netMngrInit (netMngr)
                                                   netMngrTask (netMngr)
                                                   sMacDataIndication (sNwk)
                                                   sMacDataSendCallBack (sNwk)
                                                   sMacSend (sMac)
                                                   sMacTask (sMac)
                                                   sNwkTask (sNwk)
    -------------------------------------------------------------------------
<BANKED_CODE,BANK_RELAYS..> 1 (was BANK_RELAYS)
  Relative segment, address: CODE 000031BB - 000031C0 (0x6 bytes), align: 0
  Segment part 16.
           ENTRY                   ADDRESS         REF BY
           =====                   =======         ======
           BosScheduler::?relay    000031BB        main (startup)

    *************************************************************************

  FILE NAME : D:\ZbNode\Proj\ZbNode\ide\Release\Obj\list.r51
  PROGRAM MODULE, NAME : list

  SEGMENTS IN THE MODULE
  ======================
<BANKED_CODE,XDATA_ROM_C_FLASH> 1 (was BANKED_CODE)
  Relative segment, address: CODE 0000A261 - 0000A275 (0x15 bytes), align: 0
  Segment part 6.             Intra module refs:   list_add::?relay
           ENTRY                   ADDRESS         REF BY
           =====                   =======         ======
           list_add                0000A261 
               XSTACK = 00000000 ( 00000009 )
    -------------------------------------------------------------------------
<BANKED_CODE,XDATA_ROM_C_FLASH> 1 (was BANKED_CODE)
  Relative segment, address: CODE 0000A276 - 0000A28A (0x15 bytes), align: 0
  Segment part 8.             Intra module refs:   list_add_tail::?relay
           ENTRY                   ADDRESS         REF BY
           =====                   =======         ======
           list_add_tail           0000A276 
               XSTACK = 00000000 ( 00000009 )
    -------------------------------------------------------------------------
<BANKED_CODE,XDATA_ROM_C_FLASH> 1 (was BANKED_CODE)
  Relative segment, address: CODE 0000A28B - 0000A2B8 (0x2e bytes), align: 0
  Segment part 10.            Intra module refs:   list_del::?relay
           ENTRY                   ADDRESS         REF BY
           =====                   =======         ======
           list_del                0000A28B 
               XSTACK = 00000000 ( 00000009 )
    -------------------------------------------------------------------------
<BANKED_CODE,XDATA_ROM_C_FLASH> 1 (was BANKED_CODE)
  Relative segment, address: CODE 0000A2B9 - 0000A2CA (0x12 bytes), align: 0
  Segment part 17.            Intra module refs:   list_add
           LOCAL                   ADDRESS         
           =====                   =======         
           ?Subroutine3            0000A2B9 
    -------------------------------------------------------------------------
<BANKED_CODE,XDATA_ROM_C_FLASH> 1 (was BANKED_CODE)
  Relative segment, address: CODE 0000A2CB - 0000A2CE (0x4 bytes), align: 0
  Segment part 18.            Intra module refs:   ?Subroutine3
           LOCAL                   ADDRESS         
           =====                   =======         
           ?Subroutine10           0000A2CB 
    -------------------------------------------------------------------------
<BANKED_CODE,XDATA_ROM_C_FLASH> 1 (was BANKED_CODE)
  Relative segment, address: CODE 0000A2CF - 0000A2D4 (0x6 bytes), align: 0
  Segment part 19.            Intra module refs:   ?Subroutine10
                                                   Segment part 45
    -------------------------------------------------------------------------
<BANKED_CODE,XDATA_ROM_C_FLASH> 1 (was BANKED_CODE)
  Relative segment, address: CODE 0000A2D5 - 0000A2DD (0x9 bytes), align: 0
  Segment part 22.            Intra module refs:   list_add_tail
           LOCAL                   ADDRESS         
           =====                   =======         
           ?Subroutine8            0000A2D5 
    -------------------------------------------------------------------------
<BANKED_CODE,XDATA_ROM_C_FLASH> 1 (was BANKED_CODE)
  Relative segment, address: CODE 0000A2DE - 0000A2E7 (0xa bytes), align: 0
  Segment part 23.            Intra module refs:   ?Subroutine3
                                                   ?Subroutine8
           LOCAL                   ADDRESS         
           =====                   =======         
           ?Subroutine11           0000A2DE 
    -------------------------------------------------------------------------
<BANKED_CODE,XDATA_ROM_C_FLASH> 1 (was BANKED_CODE)
  Relative segment, address: CODE 0000A2E8 - 0000A2ED (0x6 bytes), align: 0
  Segment part 31.            Intra module refs:   list_add_tail
                                                   list_del
           LOCAL                   ADDRESS         
           =====                   =======         
           ?Subroutine6            0000A2E8 
    -------------------------------------------------------------------------
<BANKED_CODE,XDATA_ROM_C_FLASH> 1 (was BANKED_CODE)
  Relative segment, address: CODE 0000A2EE - 0000A2F1 (0x4 bytes), align: 0
  Segment part 32.            Intra module refs:   ?Subroutine6
    -------------------------------------------------------------------------
<BANKED_CODE,XDATA_ROM_C_FLASH> 1 (was BANKED_CODE)
  Relative segment, address: CODE 0000A2F2 - 0000A2FB (0xa bytes), align: 0
  Segment part 33.            Intra module refs:   Segment part 32
           LOCAL                   ADDRESS         
           =====                   =======         
           ?Subroutine12           0000A2F2 
    -------------------------------------------------------------------------
<BANKED_CODE,XDATA_ROM_C_FLASH> 1 (was BANKED_CODE)
  Relative segment, address: CODE 0000A2FC - 0000A300 (0x5 bytes), align: 0
  Segment part 35.            Intra module refs:   list_add
           LOCAL                   ADDRESS         
           =====                   =======         
           ?Subroutine0            0000A2FC 
    -------------------------------------------------------------------------
<BANKED_CODE,XDATA_ROM_C_FLASH> 1 (was BANKED_CODE)
  Relative segment, address: CODE 0000A301 - 0000A304 (0x4 bytes), align: 0
  Segment part 36.            Intra module refs:   ?Subroutine0
                                                   list_add_tail
    -------------------------------------------------------------------------
<BANKED_CODE,XDATA_ROM_C_FLASH> 1 (was BANKED_CODE)
  Relative segment, address: CODE 0000A305 - 0000A305 (0x1 bytes), align: 0
  Segment part 37.            Intra module refs:   Segment part 36
                                                   list_del
    -------------------------------------------------------------------------
<BANKED_CODE,XDATA_ROM_C_FLASH> 1 (was BANKED_CODE)
  Relative segment, address: CODE 0000A306 - 0000A30A (0x5 bytes), align: 0
  Segment part 38.            Intra module refs:   Segment part 37
    -------------------------------------------------------------------------
<BANKED_CODE,XDATA_ROM_C_FLASH> 1 (was BANKED_CODE)
  Relative segment, address: CODE 0000A30B - 0000A314 (0xa bytes), align: 0
  Segment part 43.            Intra module refs:   list_add_tail
                                                   list_del
           LOCAL                   ADDRESS         
           =====                   =======         
           ?Subroutine5            0000A30B 
    -------------------------------------------------------------------------
<BANKED_CODE,XDATA_ROM_C_FLASH> 1 (was BANKED_CODE)
  Relative segment, address: CODE 0000A315 - 0000A319 (0x5 bytes), align: 0
  Segment part 44.            Intra module refs:   ?Subroutine5
    -------------------------------------------------------------------------
<BANKED_CODE,XDATA_ROM_C_FLASH> 1 (was BANKED_CODE)
  Relative segment, address: CODE 0000A31A - 0000A31D (0x4 bytes), align: 0
  Segment part 45.            Intra module refs:   Segment part 44
    -------------------------------------------------------------------------
<BANKED_CODE,BANK_RELAYS..> 1 (was BANK_RELAYS)
  Relative segment, address: CODE 000030EF - 000030F4 (0x6 bytes), align: 0
  Segment part 7.
           ENTRY                   ADDRESS         REF BY
           =====                   =======         ======
           list_add::?relay        000030EF        sMacTask (sMac)
    -------------------------------------------------------------------------
<BANKED_CODE,BANK_RELAYS..> 1 (was BANK_RELAYS)
  Relative segment, address: CODE 00003035 - 0000303A (0x6 bytes), align: 0
  Segment part 9.
           ENTRY                   ADDRESS         REF BY
           =====                   =======         ======
           list_add_tail::?relay   00003035        BC95RxIndicationSearch (BC95)
                                                   netSend (netMngr)
                                                   sMacTask (sMac)
    -------------------------------------------------------------------------
<BANKED_CODE,BANK_RELAYS..> 1 (was BANK_RELAYS)
  Relative segment, address: CODE 0000303B - 00003040 (0x6 bytes), align: 0
  Segment part 11.
           ENTRY                   ADDRESS         REF BY
           =====                   =======         ======
           list_del::?relay        0000303B        BC95PollingAT (BC95)
                                                   netSend (netMngr)
                                                   sMacTask (sMac)

    *************************************************************************

  FILE NAME : D:\ZbNode\Proj\ZbNode\ide\Release\Obj\netMngr.r51
  PROGRAM MODULE, NAME : netMngr

  SEGMENTS IN THE MODULE
  ======================
XDATA_Z
  Relative segment, address: XDATA 00000445 - 00000445 (0x1 bytes), align: 0
  Segment part 6.             Intra module refs:   netMngrTask
           ENTRY                   ADDRESS         REF BY
           =====                   =======         ======
           module_status           00000445        BC95InitAT (BC95)
                                                   BC95PollingAT (BC95)
    -------------------------------------------------------------------------
XDATA_Z
  Relative segment, address: XDATA 00000446 - 00000447 (0x2 bytes), align: 0
  Segment part 7.             Intra module refs:   ?Subroutine6
                                                   netMngrInit
           ENTRY                   ADDRESS         REF BY
           =====                   =======         ======
           atm                     00000446        ?Subroutine17 (BC95)
                                                   Segment part 92 (BC95)
    -------------------------------------------------------------------------
XDATA_Z
  Relative segment, address: XDATA 00000448 - 0000044B (0x4 bytes), align: 0
  Segment part 8.             Intra module refs:   netMngrInit
                                                   netSend
           ENTRY                   ADDRESS         REF BY
           =====                   =======         ======
           send_list_head          00000448        BC95PollingAT (BC95)
    -------------------------------------------------------------------------
XDATA_Z
  Relative segment, address: XDATA 0000044C - 0000044C (0x1 bytes), align: 0
  Segment part 9.             Intra module refs:   netMngrInit
                                                   netSend
           ENTRY                   ADDRESS         REF BY
           =====                   =======         ======
           send_list_cnt           0000044C        BC95PollingAT (BC95)
    -------------------------------------------------------------------------
XDATA_Z
  Relative segment, address: XDATA 0000044D - 00000450 (0x4 bytes), align: 0
  Segment part 10.            Intra module refs:   netMngrInit
                                                   netRecv
           ENTRY                   ADDRESS         REF BY
           =====                   =======         ======
           recv_list_head          0000044D        BC95RxIndicationSearch (BC95)
    -------------------------------------------------------------------------
XDATA_Z
  Relative segment, address: XDATA 00000451 - 00000451 (0x1 bytes), align: 0
  Segment part 11.            Intra module refs:   netMngrInit
                                                   netRecv
           ENTRY                   ADDRESS         REF BY
           =====                   =======         ======
           recv_list_cnt           00000451        BC95RxIndicationSearch (BC95)
    -------------------------------------------------------------------------
XDATA_Z
  Relative segment, address: XDATA 00000452 - 00000460 (0xf bytes), align: 0
  Segment part 12.
           ENTRY                   ADDRESS         REF BY
           =====                   =======         ======
           imei                    00000452        BC95InitAT (BC95)
    -------------------------------------------------------------------------
XDATA_Z
  Relative segment, address: XDATA 00000461 - 00000474 (0x14 bytes), align: 0
  Segment part 13.
           ENTRY                   ADDRESS         REF BY
           =====                   =======         ======
           iccid                   00000461        BC95InitAT (BC95)
                                                   attributeGet (attribute)
    -------------------------------------------------------------------------
XDATA_Z
  Relative segment, address: XDATA 00000475 - 00000475 (0x1 bytes), align: 0
  Segment part 14.
           ENTRY                   ADDRESS         REF BY
           =====                   =======         ======
           rssi                    00000475        BC95InitAT (BC95)
                                                   BC95PollingAT (BC95)
                                                   attributeGet (attribute)
    -------------------------------------------------------------------------
XDATA_Z
  Relative segment, address: XDATA 00000476 - 00000477 (0x2 bytes), align: 0
  Segment part 15.            Intra module refs:   netDataIndicationCallBackSet
                                                   netMngrInit
           ENTRY                   ADDRESS         REF BY
           =====                   =======         ======
           netDataIndication       00000476        BC95RxIndicationSearch (BC95)
    -------------------------------------------------------------------------
<BANKED_CODE,XDATA_ROM_C_FLASH> 1 (was BANKED_CODE)
  Relative segment, address: CODE 00008379 - 0000837F (0x7 bytes), align: 0
  Segment part 19.            Intra module refs:   netDataIndicationCallBackSet
           LOCAL                   ADDRESS         
           =====                   =======         
           ?Subroutine0            00008379 
    -------------------------------------------------------------------------
<BANKED_CODE,XDATA_ROM_C_FLASH> 1 (was BANKED_CODE)
  Relative segment, address: CODE 00008380 - 00008443 (0xc4 bytes), align: 0
  Segment part 22.            Intra module refs:   netMngrInit::?relay
           ENTRY                   ADDRESS         REF BY
           =====                   =======         ======
           netMngrInit             00008380 
               calls direct
               XSTACK = 00000000 ( 0000000E )
    -------------------------------------------------------------------------
<BANKED_CODE,XDATA_ROM_C_FLASH> 1 (was BANKED_CODE)
  Relative segment, address: CODE 00008444 - 00008446 (0x3 bytes), align: 0
  Segment part 24.            Intra module refs:   netMngrInit
                                                   netMngrTask
           LOCAL                   ADDRESS         
           =====                   =======         
           ?Subroutine1            00008444 
    -------------------------------------------------------------------------
<BANKED_CODE,XDATA_ROM_C_FLASH> 1 (was BANKED_CODE)
  Relative segment, address: CODE 00008447 - 0000844B (0x5 bytes), align: 0
  Segment part 25.            Intra module refs:   ?Subroutine1
                                                   netRecv
    -------------------------------------------------------------------------
<BANKED_CODE,XDATA_ROM_C_FLASH> 1 (was BANKED_CODE)
  Relative segment, address: CODE 0000844C - 00008455 (0xa bytes), align: 0
  Segment part 26.            Intra module refs:   netMngrInit
           LOCAL                   ADDRESS         
           =====                   =======         
           ?Subroutine14           0000844C 
    -------------------------------------------------------------------------
<BANKED_CODE,XDATA_ROM_C_FLASH> 1 (was BANKED_CODE)
  Relative segment, address: CODE 00008456 - 0000845C (0x7 bytes), align: 0
  Segment part 27.            Intra module refs:   netMngrInit
           LOCAL                   ADDRESS         
           =====                   =======         
           ?Subroutine12           00008456 
    -------------------------------------------------------------------------
<BANKED_CODE,XDATA_ROM_C_FLASH> 1 (was BANKED_CODE)
  Relative segment, address: CODE 0000845D - 00008468 (0xc bytes), align: 0
  Segment part 28.            Intra module refs:   ?Subroutine12
                                                   netMngrInit
           LOCAL                   ADDRESS         
           =====                   =======         
           ?Subroutine22           0000845D 
    -------------------------------------------------------------------------
<BANKED_CODE,XDATA_ROM_C_FLASH> 1 (was BANKED_CODE)
  Relative segment, address: CODE 00008469 - 000084BC (0x54 bytes), align: 0
  Segment part 29.            Intra module refs:   netMngrTask::?relay
           ENTRY                   ADDRESS         REF BY
           =====                   =======         ======
           netMngrTask             00008469 
               calls direct
               XSTACK = 00000000 ( 0000000B )
    -------------------------------------------------------------------------
<BANKED_CODE,XDATA_ROM_C_FLASH> 1 (was BANKED_CODE)
  Relative segment, address: CODE 000084BD - 00008573 (0xb7 bytes), align: 0
  Segment part 31.            Intra module refs:   netSend::?relay
           ENTRY                   ADDRESS         REF BY
           =====                   =======         ======
           netSend                 000084BD 
               calls direct
               XSTACK = 00000000 ( 00000012 )
    -------------------------------------------------------------------------
<BANKED_CODE,XDATA_ROM_C_FLASH> 1 (was BANKED_CODE)
  Relative segment, address: CODE 00008574 - 000085FC (0x89 bytes), align: 0
  Segment part 33.            Intra module refs:   netRecv::?relay
           ENTRY                   ADDRESS         REF BY
           =====                   =======         ======
           netRecv                 00008574 
               calls direct
               XSTACK = 00000000 ( 0000000A )
    -------------------------------------------------------------------------
<BANKED_CODE,XDATA_ROM_C_FLASH> 1 (was BANKED_CODE)
  Relative segment, address: CODE 000085FD - 00008602 (0x6 bytes), align: 0
  Segment part 35.            Intra module refs:   atcmd_resp_search
           LOCAL                   ADDRESS         
           =====                   =======         
           ?Subroutine5            000085FD 
    -------------------------------------------------------------------------
<BANKED_CODE,XDATA_ROM_C_FLASH> 1 (was BANKED_CODE)
  Relative segment, address: CODE 00008603 - 00008604 (0x2 bytes), align: 0
  Segment part 36.            Intra module refs:   ?Subroutine5
                                                   netRecv
    -------------------------------------------------------------------------
<BANKED_CODE,XDATA_ROM_C_FLASH> 1 (was BANKED_CODE)
  Relative segment, address: CODE 00008605 - 0000860A (0x6 bytes), align: 0
  Segment part 37.            Intra module refs:   Segment part 36
                                                   netSend
    -------------------------------------------------------------------------
<BANKED_CODE,XDATA_ROM_C_FLASH> 1 (was BANKED_CODE)
  Relative segment, address: CODE 0000860B - 00008619 (0xf bytes), align: 0
  Segment part 38.            Intra module refs:   netDataIndicationCallBackSet::?relay
           ENTRY                   ADDRESS         REF BY
           =====                   =======         ======
           netDataIndicationCallBackSet
                                   0000860B 
               ISTACK = 00000000 ( 00000002 )
    -------------------------------------------------------------------------
<BANKED_CODE,XDATA_ROM_C_FLASH> 1 (was BANKED_CODE)
  Relative segment, address: CODE 0000861A - 000087CC (0x1b3 bytes), align: 0
  Segment part 40.            Intra module refs:   atCmdStart::?relay
           ENTRY                   ADDRESS         REF BY
           =====                   =======         ======
           atCmdStart              0000861A 
               calls direct
               XSTACK = 00000006 ( 00000014 )
               ISTACK = 00000000 ( 00000002 )
    -------------------------------------------------------------------------
<BANKED_CODE,XDATA_ROM_C_FLASH> 1 (was BANKED_CODE)
  Relative segment, address: CODE 000087CD - 000087D1 (0x5 bytes), align: 0
  Segment part 42.            Intra module refs:   atCmdStart
                                                   atcmd_resp_search
           LOCAL                   ADDRESS         
           =====                   =======         
           ?Subroutine2            000087CD 
    -------------------------------------------------------------------------
<BANKED_CODE,XDATA_ROM_C_FLASH> 1 (was BANKED_CODE)
  Relative segment, address: CODE 000087D2 - 000087D6 (0x5 bytes), align: 0
  Segment part 43.            Intra module refs:   ?Subroutine2
                                                   netSend
    -------------------------------------------------------------------------
<BANKED_CODE,XDATA_ROM_C_FLASH> 1 (was BANKED_CODE)
  Relative segment, address: CODE 000087D7 - 000087DC (0x6 bytes), align: 0
  Segment part 44.            Intra module refs:   atCmdStart
           LOCAL                   ADDRESS         
           =====                   =======         
           ?Subroutine16           000087D7 
    -------------------------------------------------------------------------
<BANKED_CODE,XDATA_ROM_C_FLASH> 1 (was BANKED_CODE)
  Relative segment, address: CODE 000087DD - 000087E7 (0xb bytes), align: 0
  Segment part 45.            Intra module refs:   atCmdStart
           LOCAL                   ADDRESS         
           =====                   =======         
           ?Subroutine7            000087DD 
    -------------------------------------------------------------------------
<BANKED_CODE,XDATA_ROM_C_FLASH> 1 (was BANKED_CODE)
  Relative segment, address: CODE 000087E8 - 0000883B (0x54 bytes), align: 0
  Segment part 46.            Intra module refs:   atCmdStop::?relay
           ENTRY                   ADDRESS         REF BY
           =====                   =======         ======
           atCmdStop               000087E8 
               calls direct
               XSTACK = 00000000 ( 00000009 )
    -------------------------------------------------------------------------
<BANKED_CODE,XDATA_ROM_C_FLASH> 1 (was BANKED_CODE)
  Relative segment, address: CODE 0000883C - 00008845 (0xa bytes), align: 0
  Segment part 48.            Intra module refs:   ?Subroutine16
                                                   atCmdStop
           LOCAL                   ADDRESS         
           =====                   =======         
           ?Subroutine23           0000883C 
    -------------------------------------------------------------------------
<BANKED_CODE,XDATA_ROM_C_FLASH> 1 (was BANKED_CODE)
  Relative segment, address: CODE 00008846 - 0000884F (0xa bytes), align: 0
  Segment part 49.            Intra module refs:   atCmdStop
           LOCAL                   ADDRESS         
           =====                   =======         
           ?Subroutine15           00008846 
    -------------------------------------------------------------------------
<BANKED_CODE,XDATA_ROM_C_FLASH> 1 (was BANKED_CODE)
  Relative segment, address: CODE 00008850 - 0000885A (0xb bytes), align: 0
  Segment part 50.            Intra module refs:   atCmdStart
                                                   atCmdStop
           LOCAL                   ADDRESS         
           =====                   =======         
           ?Subroutine10           00008850 
    -------------------------------------------------------------------------
<BANKED_CODE,XDATA_ROM_C_FLASH> 1 (was BANKED_CODE)
  Relative segment, address: CODE 0000885B - 00008860 (0x6 bytes), align: 0
  Segment part 51.            Intra module refs:   atCmdStart
                                                   atCmdStop
           LOCAL                   ADDRESS         
           =====                   =======         
           ?Subroutine9            0000885B 
    -------------------------------------------------------------------------
<BANKED_CODE,XDATA_ROM_C_FLASH> 1 (was BANKED_CODE)
  Relative segment, address: CODE 00008861 - 0000886B (0xb bytes), align: 0
  Segment part 52.            Intra module refs:   netMngrTask
           LOCAL                   ADDRESS         
           =====                   =======         
           ?Subroutine6            00008861 
    -------------------------------------------------------------------------
<BANKED_CODE,XDATA_ROM_C_FLASH> 1 (was BANKED_CODE)
  Relative segment, address: CODE 0000886C - 00008871 (0x6 bytes), align: 0
  Segment part 53.            Intra module refs:   ?Subroutine6
                                                   atCmdStart
                                                   atCmdStop
                                                   atcmd_resp_search
                                                   netRecv
    -------------------------------------------------------------------------
<BANKED_CODE,XDATA_ROM_C_FLASH> 1 (was BANKED_CODE)
  Relative segment, address: CODE 00008872 - 00008B6D (0x2fc bytes), align: 0
  Segment part 54.            Intra module refs:   atcmd_resp_search::?relay
           LOCAL                   ADDRESS         
           =====                   =======         
           atcmd_resp_search       00008872 
               calls direct
               XSTACK = 0000000B ( 00000014 )
               ISTACK = 00000000 ( 00000001 )
    -------------------------------------------------------------------------
<BANKED_CODE,XDATA_ROM_C_FLASH> 1 (was BANKED_CODE)
  Relative segment, address: CODE 00008B6E - 00008B77 (0xa bytes), align: 0
  Segment part 56.            Intra module refs:   ?Subroutine5
                                                   atcmd_resp_search
           LOCAL                   ADDRESS         
           =====                   =======         
           ?Subroutine24           00008B6E 
    -------------------------------------------------------------------------
<BANKED_CODE,XDATA_ROM_C_FLASH> 1 (was BANKED_CODE)
  Relative segment, address: CODE 00008B78 - 00008B81 (0xa bytes), align: 0
  Segment part 57.            Intra module refs:   ?Subroutine8
                                                   ?Subroutine9
                                                   atcmd_resp_search
           LOCAL                   ADDRESS         
           =====                   =======         
           ?Subroutine20           00008B78 
    -------------------------------------------------------------------------
<BANKED_CODE,XDATA_ROM_C_FLASH> 1 (was BANKED_CODE)
  Relative segment, address: CODE 00008B82 - 00008B8B (0xa bytes), align: 0
  Segment part 58.            Intra module refs:   atcmd_resp_search
           LOCAL                   ADDRESS         
           =====                   =======         
           ?Subroutine18           00008B82 
    -------------------------------------------------------------------------
<BANKED_CODE,XDATA_ROM_C_FLASH> 1 (was BANKED_CODE)
  Relative segment, address: CODE 00008B8C - 00008B95 (0xa bytes), align: 0
  Segment part 59.            Intra module refs:   atcmd_resp_search
           LOCAL                   ADDRESS         
           =====                   =======         
           ?Subroutine17           00008B8C 
    -------------------------------------------------------------------------
<BANKED_CODE,XDATA_ROM_C_FLASH> 1 (was BANKED_CODE)
  Relative segment, address: CODE 00008B96 - 00008B9D (0x8 bytes), align: 0
  Segment part 60.            Intra module refs:   atcmd_resp_search
                                                   netSend
           LOCAL                   ADDRESS         
           =====                   =======         
           ?Subroutine13           00008B96 
    -------------------------------------------------------------------------
<BANKED_CODE,XDATA_ROM_C_FLASH> 1 (was BANKED_CODE)
  Relative segment, address: CODE 00008B9E - 00008B9F (0x2 bytes), align: 0
  Segment part 61.            Intra module refs:   atCmdStop
                                                   atcmd_resp_search
           LOCAL                   ADDRESS         
           =====                   =======         
           ?Subroutine11           00008B9E 
    -------------------------------------------------------------------------
<BANKED_CODE,XDATA_ROM_C_FLASH> 1 (was BANKED_CODE)
  Relative segment, address: CODE 00008BA0 - 00008BA3 (0x4 bytes), align: 0
  Segment part 62.            Intra module refs:   ?Subroutine11
                                                   atCmdStart
                                                   atcmd_resp_search
    -------------------------------------------------------------------------
<BANKED_CODE,XDATA_ROM_C_FLASH> 1 (was BANKED_CODE)
  Relative segment, address: CODE 00008BA4 - 00008BA9 (0x6 bytes), align: 0
  Segment part 63.            Intra module refs:   ?Subroutine10
                                                   Segment part 62
           LOCAL                   ADDRESS         
           =====                   =======         
           ?Subroutine21           00008BA4 
    -------------------------------------------------------------------------
<BANKED_CODE,XDATA_ROM_C_FLASH> 1 (was BANKED_CODE)
  Relative segment, address: CODE 00008BAA - 00008BB4 (0xb bytes), align: 0
  Segment part 64.            Intra module refs:   ?Subroutine21
                                                   atCmdStop
           LOCAL                   ADDRESS         
           =====                   =======         
           ?Subroutine26           00008BAA 
    -------------------------------------------------------------------------
<BANKED_CODE,XDATA_ROM_C_FLASH> 1 (was BANKED_CODE)
  Relative segment, address: CODE 00008BB5 - 00008BB9 (0x5 bytes), align: 0
  Segment part 65.            Intra module refs:   atCmdStart
                                                   atcmd_resp_search
           LOCAL                   ADDRESS         
           =====                   =======         
           ?Subroutine8            00008BB5 
    -------------------------------------------------------------------------
<BANKED_CODE,XDATA_ROM_C_FLASH> 1 (was BANKED_CODE)
  Relative segment, address: CODE 00008BBA - 00008BC6 (0xd bytes), align: 0
  Segment part 66.            Intra module refs:   atcmd_resp_search
           LOCAL                   ADDRESS         
           =====                   =======         
           ?Subroutine4            00008BBA 
    -------------------------------------------------------------------------
<BANKED_CODE,XDATA_ROM_C_FLASH> 1 (was BANKED_CODE)
  Relative segment, address: CODE 00008BC7 - 00008BD2 (0xc bytes), align: 0
  Segment part 67.            Intra module refs:   ?Subroutine4
                                                   atcmd_resp_search
           LOCAL                   ADDRESS         
           =====                   =======         
           ?Subroutine19           00008BC7 
    -------------------------------------------------------------------------
<BANKED_CODE,XDATA_ROM_C_FLASH> 1 (was BANKED_CODE)
  Relative segment, address: CODE 00008BD3 - 00008BE9 (0x17 bytes), align: 0
  Segment part 68.            Intra module refs:   atcmd_resp_search
           LOCAL                   ADDRESS         
           =====                   =======         
           ?Subroutine3            00008BD3 
    -------------------------------------------------------------------------
<BANKED_CODE,XDATA_ROM_C_FLASH> 1 (was BANKED_CODE)
  Relative segment, address: CODE 00008BEA - 00008BEF (0x6 bytes), align: 0
  Segment part 69.            Intra module refs:   ?Subroutine19
                                                   ?Subroutine3
                                                   Segment part 37
                                                   atcmd_resp_search
           LOCAL                   ADDRESS         
           =====                   =======         
           ?Subroutine25           00008BEA 
    -------------------------------------------------------------------------
<BANKED_CODE,XDATA_ROM_C_FLASH> 1 (was BANKED_CODE)
  Relative segment, address: CODE 00008BF0 - 00008BF2 (0x3 bytes), align: 0
  Segment part 70.            Intra module refs:   netUartRxIndicat::?relay
           LOCAL                   ADDRESS         
           =====                   =======         
           netUartRxIndicat        00008BF0 
               is indirectly called
    -------------------------------------------------------------------------
<XDATA_ROM_C> 1 (was XDATA_ROM_C)
  Relative segment, address: CONST 00008349 - 0000834C (0x4 bytes), align: 0
  Segment part 16.            Intra module refs:   atCmdStart
                                                   sMacTask (sMac)
           ENTRY                   ADDRESS         REF BY
           =====                   =======         ======
           __Constant_7fffffff     00008349 
    -------------------------------------------------------------------------
<BANKED_CODE,BANK_RELAYS..> 1 (was BANK_RELAYS)
  Relative segment, address: CODE 00003041 - 00003046 (0x6 bytes), align: 0
  Segment part 23.
           ENTRY                   ADDRESS         REF BY
           =====                   =======         ======
           netMngrInit::?relay     00003041        ApplicationInit (Application)
    -------------------------------------------------------------------------
<BANKED_CODE,BANK_RELAYS..> 1 (was BANK_RELAYS)
  Relative segment, address: CODE 00003047 - 0000304C (0x6 bytes), align: 0
  Segment part 30.
           ENTRY                   ADDRESS         REF BY
           =====                   =======         ======
           netMngrTask::?relay     00003047        tasksArr (sysTask)
    -------------------------------------------------------------------------
<BANKED_CODE,BANK_RELAYS..> 1 (was BANK_RELAYS)
  Relative segment, address: CODE 0000304D - 00003052 (0x6 bytes), align: 0
  Segment part 32.
           ENTRY                   ADDRESS         REF BY
           =====                   =======         ======
           netSend::?relay         0000304D        AppTask (Application)
    -------------------------------------------------------------------------
<BANKED_CODE,BANK_RELAYS..> 1 (was BANK_RELAYS)
  Relative segment, address: CODE 00003053 - 00003058 (0x6 bytes), align: 0
  Segment part 34.
           ENTRY                   ADDRESS         REF BY
           =====                   =======         ======
           netRecv::?relay         00003053        AppTask (Application)
    -------------------------------------------------------------------------
<BANKED_CODE,BANK_RELAYS..> 1 (was BANK_RELAYS)
  Relative segment, address: CODE 00003059 - 0000305E (0x6 bytes), align: 0
  Segment part 39.
           ENTRY                   ADDRESS         REF BY
           =====                   =======         ======
           netDataIndicationCallBackSet::?relay
                                   00003059        ApplicationInit (Application)
    -------------------------------------------------------------------------
<BANKED_CODE,BANK_RELAYS..> 1 (was BANK_RELAYS)
  Relative segment, address: CODE 0000305F - 00003064 (0x6 bytes), align: 0
  Segment part 41.
           ENTRY                   ADDRESS         REF BY
           =====                   =======         ======
           atCmdStart::?relay      0000305F        BC95InitAT (BC95)
                                                   BC95PollingAT (BC95)
    -------------------------------------------------------------------------
<BANKED_CODE,BANK_RELAYS..> 1 (was BANK_RELAYS)
  Relative segment, address: CODE 00003065 - 0000306A (0x6 bytes), align: 0
  Segment part 47.
           ENTRY                   ADDRESS         REF BY
           =====                   =======         ======
           atCmdStop::?relay       00003065        BC95InitAT (BC95)
                                                   BC95PollingAT (BC95)
    -------------------------------------------------------------------------
<BANKED_CODE,BANK_RELAYS..> 1 (was BANK_RELAYS)
  Relative segment, address: CODE 0000306B - 00003070 (0x6 bytes), align: 0
  Segment part 55.            Intra module refs:   netMngrTask
           LOCAL                   ADDRESS         
           =====                   =======         
           atcmd_resp_search::?relay
                                   0000306B 
    -------------------------------------------------------------------------
<BANKED_CODE,BANK_RELAYS..> 1 (was BANK_RELAYS)
  Relative segment, address: CODE 00003071 - 00003076 (0x6 bytes), align: 0
  Segment part 71.            Intra module refs:   netMngrInit
           LOCAL                   ADDRESS         
           =====                   =======         
           netUartRxIndicat::?relay
                                   00003071 
    -------------------------------------------------------------------------
<BANKED_CODE,XDATA_ROM_C_FLASH> 1 (was XDATA_ROM_C_FLASH)
  Relative segment, address: CODE 00008349 - 0000834C (0x4 bytes), align: 0
  Segment part 72.            Intra module refs:   __Constant_7fffffff

    *************************************************************************

  FILE NAME : D:\ZbNode\Proj\ZbNode\ide\Release\Obj\nvram.r51
  PROGRAM MODULE, NAME : nvram

  SEGMENTS IN THE MODULE
  ======================
<BANKED_CODE,XDATA_ROM_C_FLASH> 1 (was BANKED_CODE)
  Relative segment, address: CODE 00008FDB - 000091DA (0x200 bytes), align: 0
  Segment part 10.            Intra module refs:   nvramInit::?relay
           ENTRY                   ADDRESS         REF BY
           =====                   =======         ======
           nvramInit               00008FDB 
               calls direct
               XSTACK = 00000000 ( 00000016 )
    -------------------------------------------------------------------------
<BANKED_CODE,XDATA_ROM_C_FLASH> 1 (was BANKED_CODE)
  Relative segment, address: CODE 000091DB - 000091E4 (0xa bytes), align: 0
  Segment part 12.            Intra module refs:   nvramBlockCheck
                                                   nvramInit
           LOCAL                   ADDRESS         
           =====                   =======         
           ?Subroutine0            000091DB 
    -------------------------------------------------------------------------
<BANKED_CODE,XDATA_ROM_C_FLASH> 1 (was BANKED_CODE)
  Relative segment, address: CODE 000091E5 - 000091EE (0xa bytes), align: 0
  Segment part 17.            Intra module refs:   nvramInit
           LOCAL                   ADDRESS         
           =====                   =======         
           ?Subroutine6            000091E5 
    -------------------------------------------------------------------------
<BANKED_CODE,XDATA_ROM_C_FLASH> 1 (was BANKED_CODE)
  Relative segment, address: CODE 000091EF - 00009206 (0x18 bytes), align: 0
  Segment part 18.            Intra module refs:   nvramInit
           LOCAL                   ADDRESS         
           =====                   =======         
           ?Subroutine2            000091EF 
    -------------------------------------------------------------------------
<BANKED_CODE,XDATA_ROM_C_FLASH> 1 (was BANKED_CODE)
  Relative segment, address: CODE 00009207 - 000092AB (0xa5 bytes), align: 0
  Segment part 19.            Intra module refs:   nvramBlockCheck::?relay
           LOCAL                   ADDRESS         
           =====                   =======         
           nvramBlockCheck         00009207 
               calls direct
               XSTACK = 00000012 ( 00000016 )
    -------------------------------------------------------------------------
<BANKED_CODE,XDATA_ROM_C_FLASH> 1 (was BANKED_CODE)
  Relative segment, address: CODE 000092AC - 000092B7 (0xc bytes), align: 0
  Segment part 21.            Intra module refs:   nvramBlockCheck
                                                   nvramInit
           LOCAL                   ADDRESS         
           =====                   =======         
           ?Subroutine5            000092AC 
    -------------------------------------------------------------------------
<BANKED_CODE,XDATA_ROM_C_FLASH> 1 (was BANKED_CODE)
  Relative segment, address: CODE 000092B8 - 000092C4 (0xd bytes), align: 0
  Segment part 22.            Intra module refs:   nvramBlockCheck
           LOCAL                   ADDRESS         
           =====                   =======         
           ?Subroutine4            000092B8 
    -------------------------------------------------------------------------
<BANKED_CODE,XDATA_ROM_C_FLASH> 1 (was BANKED_CODE)
  Relative segment, address: CODE 000092C5 - 000092D3 (0xf bytes), align: 0
  Segment part 23.            Intra module refs:   nvramBlockCheck
           LOCAL                   ADDRESS         
           =====                   =======         
           ?Subroutine3            000092C5 
    -------------------------------------------------------------------------
<XDATA_ROM_C> 1 (was XDATA_ROM_C)
  Relative segment, address: CONST 0000834D - 00008350 (0x4 bytes), align: 0
  Segment part 7.             Intra module refs:   ?Subroutine3
                                                   nvramInit
           ENTRY                   ADDRESS         REF BY
           =====                   =======         ======
           __Constant_38000        0000834D 
    -------------------------------------------------------------------------
<XDATA_ROM_C> 1 (was XDATA_ROM_C)
  Relative segment, address: CONST 00008351 - 00008354 (0x4 bytes), align: 0
  Segment part 8.             Intra module refs:   nvramInit
           ENTRY                   ADDRESS         REF BY
           =====                   =======         ======
           __Constant_38800        00008351 
    -------------------------------------------------------------------------
<XDATA_ROM_C> 1 (was XDATA_ROM_C)
  Relative segment, address: CONST 00008355 - 00008358 (0x4 bytes), align: 0
  Segment part 9.             Intra module refs:   sMacAddressGet (sMac)
                                                   sMacCmdNetSearchReq (sMac)
                                                   sMacCmdNetSearchResp (sMac)
                                                   sMacCmdPingPong (sMac)
                                                   sMacSend (sMac)
                                                   sMacTask (sMac)
           ENTRY                   ADDRESS         REF BY
           =====                   =======         ======
           __Constant_38808        00008355 
    -------------------------------------------------------------------------
<BANKED_CODE,BANK_RELAYS..> 1 (was BANK_RELAYS)
  Relative segment, address: CODE 00003077 - 0000307C (0x6 bytes), align: 0
  Segment part 11.
           ENTRY                   ADDRESS         REF BY
           =====                   =======         ======
           nvramInit::?relay       00003077        main (startup)
    -------------------------------------------------------------------------
<BANKED_CODE,BANK_RELAYS..> 1 (was BANK_RELAYS)
  Relative segment, address: CODE 0000307D - 00003082 (0x6 bytes), align: 0
  Segment part 20.            Intra module refs:   nvramInit
           LOCAL                   ADDRESS         
           =====                   =======         
           nvramBlockCheck::?relay
                                   0000307D 
    -------------------------------------------------------------------------
<BANKED_CODE,XDATA_ROM_C_FLASH> 1 (was XDATA_ROM_C_FLASH)
  Relative segment, address: CODE 0000834D - 00008350 (0x4 bytes), align: 0
  Segment part 29.            Intra module refs:   __Constant_38000
    -------------------------------------------------------------------------
<BANKED_CODE,XDATA_ROM_C_FLASH> 1 (was XDATA_ROM_C_FLASH)
  Relative segment, address: CODE 00008351 - 00008354 (0x4 bytes), align: 0
  Segment part 30.            Intra module refs:   __Constant_38800
    -------------------------------------------------------------------------
<BANKED_CODE,XDATA_ROM_C_FLASH> 1 (was XDATA_ROM_C_FLASH)
  Relative segment, address: CODE 00008355 - 00008358 (0x4 bytes), align: 0
  Segment part 31.            Intra module refs:   __Constant_38808

    *************************************************************************

  FILE NAME : D:\ZbNode\Proj\ZbNode\ide\Release\Obj\sMac.r51
  PROGRAM MODULE, NAME : sMac

  SEGMENTS IN THE MODULE
  ======================
XDATA_Z
  Relative segment, address: XDATA 00000478 - 00000486 (0xf bytes), align: 0
  Segment part 7.             Intra module refs:   ?Subroutine104
                                                   ?Subroutine53
                                                   ?Subroutine7
                                                   ?Subroutine72
                                                   sMacCmdNetSearchResp
                                                   sMacInit
                                                   sMacSend
                                                   sMacTask
           LOCAL                   ADDRESS         
           =====                   =======         
           netInfo                 00000478 
    -------------------------------------------------------------------------
XDATA_Z
  Relative segment, address: XDATA 00000487 - 00000488 (0x2 bytes), align: 0
  Segment part 8.             Intra module refs:   ?Subroutine18
                                                   ?Subroutine47
                                                   ?Subroutine48
                                                   sMacInit
                                                   sMacTask
           LOCAL                   ADDRESS         
           =====                   =======         
           sMacSonHandle           00000487 
    -------------------------------------------------------------------------
XDATA_Z
  Relative segment, address: XDATA 00000489 - 0000048A (0x2 bytes), align: 0
  Segment part 9.             Intra module refs:   ?Subroutine19
                                                   ?Subroutine22
                                                   ?Subroutine26
                                                   ?Subroutine29
                                                   ?Subroutine34
                                                   ?Subroutine61
                                                   ?Subroutine82
                                                   ?Subroutine9
                                                   sMacInit
                                                   sMacTask
           LOCAL                   ADDRESS         
           =====                   =======         
           sMacSearchHandle        00000489 
    -------------------------------------------------------------------------
XDATA_Z
  Relative segment, address: XDATA 0000048B - 0000048C (0x2 bytes), align: 0
  Segment part 10.            Intra module refs:   sMacInit
                                                   sMacTask
           LOCAL                   ADDRESS         
           =====                   =======         
           sMacNetAutoCB           0000048B 
    -------------------------------------------------------------------------
XDATA_Z
  Relative segment, address: XDATA 0000048D - 0000048D (0x1 bytes), align: 0
  Segment part 11.            Intra module refs:   ?Subroutine99
                                                   sMacInit
           LOCAL                   ADDRESS         
           =====                   =======         
           MySeqNum                0000048D 
    -------------------------------------------------------------------------
XDATA_Z
  Relative segment, address: XDATA 0000048E - 0000048E (0x1 bytes), align: 0
  Segment part 12.            Intra module refs:   AckTimeOutCallBack
                                                   sMacInit
                                                   sMacTask
           LOCAL                   ADDRESS         
           =====                   =======         
           AckIsPending            0000048E 
    -------------------------------------------------------------------------
XDATA_Z
  Relative segment, address: XDATA 0000048F - 0000048F (0x1 bytes), align: 0
  Segment part 13.            Intra module refs:   sMacInit
                                                   sMacTask
           LOCAL                   ADDRESS         
           =====                   =======         
           AckSeqNum               0000048F 
    -------------------------------------------------------------------------
XDATA_Z
  Relative segment, address: XDATA 00000490 - 00000490 (0x1 bytes), align: 0
  Segment part 14.            Intra module refs:   sMacInit
                                                   sMacTask
           LOCAL                   ADDRESS         
           =====                   =======         
           AckTimerId              00000490 
    -------------------------------------------------------------------------
XDATA_Z
  Relative segment, address: XDATA 00000491 - 00000492 (0x2 bytes), align: 0
  Segment part 15.            Intra module refs:   ?Subroutine28
                                                   ?Subroutine80
                                                   sMacInit
                                                   sMacSend
                                                   sMacTask
           LOCAL                   ADDRESS         
           =====                   =======         
           sMacMsgSendLinkHead     00000491 
    -------------------------------------------------------------------------
XDATA_Z
  Relative segment, address: XDATA 00000493 - 00000494 (0x2 bytes), align: 0
  Segment part 16.            Intra module refs:   PhyDataIndication
                                                   Segment part 173
                                                   sMacInit
                                                   sMacTask
           ENTRY                   ADDRESS         REF BY
           =====                   =======         ======
           sMacMsgRecvLinkHead     00000493 
    -------------------------------------------------------------------------
XDATA_Z
  Relative segment, address: XDATA 00000495 - 00000495 (0x1 bytes), align: 0
  Segment part 17.            Intra module refs:   PhyDataIndication
                                                   sMacInit
                                                   sMacTask
           ENTRY                   ADDRESS         REF BY
           =====                   =======         ======
           RecvLinkCnt             00000495 
    -------------------------------------------------------------------------
XDATA_Z
  Relative segment, address: XDATA 00000496 - 00000497 (0x2 bytes), align: 0
  Segment part 18.            Intra module refs:   sMacDataIndicationCallBackSet
                                                   sMacInit
                                                   sMacTask
           LOCAL                   ADDRESS         
           =====                   =======         
           sMacDataIndication      00000496 
    -------------------------------------------------------------------------
XDATA_Z
  Relative segment, address: XDATA 00000498 - 00000498 (0x1 bytes), align: 0
  Segment part 19.            Intra module refs:   sMacInit
                                                   sMacTask
           LOCAL                   ADDRESS         
           =====                   =======         
           MsgSendTimerId          00000498 
    -------------------------------------------------------------------------
<BANKED_CODE,BANK_RELAYS..> 1 (was BANKED_CODE)
  Relative segment, address: CODE 00003312 - 0000331A (0x9 bytes), align: 0
  Segment part 30.            Intra module refs:   sMacNetSearchTimeOutCallBack::?relay
           LOCAL                   ADDRESS         
           =====                   =======         
           sMacNetSearchTimeOutCallBack
                                   00003312 
               calls direct, is indirectly called
               ISTACK = 00000000 ( 00000002 )
    -------------------------------------------------------------------------
<BANKED_CODE,BANK_RELAYS..> 1 (was BANKED_CODE)
  Relative segment, address: CODE 0000331B - 00003323 (0x9 bytes), align: 0
  Segment part 32.            Intra module refs:   sMacPingTimeOutCallBack::?relay
           LOCAL                   ADDRESS         
           =====                   =======         
           sMacPingTimeOutCallBack
                                   0000331B 
               calls direct, is indirectly called
               ISTACK = 00000000 ( 00000002 )
    -------------------------------------------------------------------------
<BANKED_CODE,BANK_RELAYS..> 1 (was BANKED_CODE)
  Relative segment, address: CODE 00003324 - 0000332C (0x9 bytes), align: 0
  Segment part 34.            Intra module refs:   sMacJoinReqTimeOutCallBack::?relay
           LOCAL                   ADDRESS         
           =====                   =======         
           sMacJoinReqTimeOutCallBack
                                   00003324 
               calls direct, is indirectly called
               ISTACK = 00000000 ( 00000002 )
    -------------------------------------------------------------------------
<BANKED_CODE,BANK_RELAYS..> 1 (was BANKED_CODE)
  Relative segment, address: CODE 0000332D - 00003421 (0xf5 bytes), align: 0
  Segment part 36.            Intra module refs:   sMacInit::?relay
           ENTRY                   ADDRESS         REF BY
           =====                   =======         ======
           sMacInit                0000332D 
               calls direct
               XSTACK = 00000000 ( 0000000F )
    -------------------------------------------------------------------------
<BANKED_CODE,BANK_RELAYS..> 1 (was BANKED_CODE)
  Relative segment, address: CODE 00003422 - 00003429 (0x8 bytes), align: 0
  Segment part 38.            Intra module refs:   sMacCmdNetSearchReq
                                                   sMacInit
           LOCAL                   ADDRESS         
           =====                   =======         
           ?Subroutine1            00003422 
    -------------------------------------------------------------------------
<BANKED_CODE,BANK_RELAYS..> 1 (was BANKED_CODE)
  Relative segment, address: CODE 0000342A - 00003440 (0x17 bytes), align: 0
  Segment part 39.            Intra module refs:   AckTimeOutCallBack::?relay
           LOCAL                   ADDRESS         
           =====                   =======         
           AckTimeOutCallBack      0000342A 
               calls direct, is indirectly called
               ISTACK = 00000000 ( 00000002 )
    -------------------------------------------------------------------------
<BANKED_CODE,BANK_RELAYS..> 1 (was BANKED_CODE)
  Relative segment, address: CODE 00003441 - 00003449 (0x9 bytes), align: 0
  Segment part 41.            Intra module refs:   MsgSendTimeOutCallBack::?relay
           LOCAL                   ADDRESS         
           =====                   =======         
           MsgSendTimeOutCallBack
                                   00003441 
               calls direct, is indirectly called
               ISTACK = 00000000 ( 00000002 )
    -------------------------------------------------------------------------
<BANKED_CODE,BANK_RELAYS..> 1 (was BANKED_CODE)
  Relative segment, address: CODE 0000344A - 00004DE4 (0x199b bytes), align: 0
  Segment part 43.            Intra module refs:   sMacTask::?relay
           ENTRY                   ADDRESS         REF BY
           =====                   =======         ======
           sMacTask                0000344A 
               calls direct
               XSTACK = 00000000 ( 0000002B )
               ISTACK = 00000000 ( 00000002 )
    -------------------------------------------------------------------------
<BANKED_CODE,BANK_RELAYS..> 1 (was BANKED_CODE)
  Relative segment, address: CODE 00004DE5 - 00004DED (0x9 bytes), align: 0
  Segment part 45.            Intra module refs:   sMacTask
           LOCAL                   ADDRESS         
           =====                   =======         
           ?Subroutine78           00004DE5 
    -------------------------------------------------------------------------
<BANKED_CODE,BANK_RELAYS..> 1 (was BANKED_CODE)
  Relative segment, address: CODE 00004DEE - 00004DF0 (0x3 bytes), align: 0
  Segment part 46.            Intra module refs:   sMacTask
           LOCAL                   ADDRESS         
           =====                   =======         
           ?Subroutine76           00004DEE 
    -------------------------------------------------------------------------
<BANKED_CODE,BANK_RELAYS..> 1 (was BANKED_CODE)
  Relative segment, address: CODE 00004DF1 - 00004DF8 (0x8 bytes), align: 0
  Segment part 47.            Intra module refs:   ?Subroutine76
                                                   sMacTask
    -------------------------------------------------------------------------
<BANKED_CODE,BANK_RELAYS..> 1 (was BANKED_CODE)
  Relative segment, address: CODE 00004DF9 - 00004DFF (0x7 bytes), align: 0
  Segment part 48.            Intra module refs:   sMacTask
           LOCAL                   ADDRESS         
           =====                   =======         
           ?Subroutine74           00004DF9 
    -------------------------------------------------------------------------
<BANKED_CODE,BANK_RELAYS..> 1 (was BANKED_CODE)
  Relative segment, address: CODE 00004E00 - 00004E0E (0xf bytes), align: 0
  Segment part 49.            Intra module refs:   sMacTask
           LOCAL                   ADDRESS         
           =====                   =======         
           ?Subroutine73           00004E00 
    -------------------------------------------------------------------------
<BANKED_CODE,BANK_RELAYS..> 1 (was BANKED_CODE)
  Relative segment, address: CODE 00004E0F - 00004E14 (0x6 bytes), align: 0
  Segment part 50.            Intra module refs:   sMacTask
           LOCAL                   ADDRESS         
           =====                   =======         
           ?Subroutine72           00004E0F 
    -------------------------------------------------------------------------
<BANKED_CODE,BANK_RELAYS..> 1 (was BANKED_CODE)
  Relative segment, address: CODE 00004E15 - 00004E1C (0x8 bytes), align: 0
  Segment part 51.            Intra module refs:   sMacTask
           LOCAL                   ADDRESS         
           =====                   =======         
           ?Subroutine70           00004E15 
    -------------------------------------------------------------------------
<BANKED_CODE,BANK_RELAYS..> 1 (was BANKED_CODE)
  Relative segment, address: CODE 00004E1D - 00004E24 (0x8 bytes), align: 0
  Segment part 52.            Intra module refs:   sMacTask
           LOCAL                   ADDRESS         
           =====                   =======         
           ?Subroutine69           00004E1D 
    -------------------------------------------------------------------------
<BANKED_CODE,BANK_RELAYS..> 1 (was BANKED_CODE)
  Relative segment, address: CODE 00004E25 - 00004E2C (0x8 bytes), align: 0
  Segment part 53.            Intra module refs:   sMacTask
           LOCAL                   ADDRESS         
           =====                   =======         
           ?Subroutine66           00004E25 
    -------------------------------------------------------------------------
<BANKED_CODE,BANK_RELAYS..> 1 (was BANKED_CODE)
  Relative segment, address: CODE 00004E2D - 00004E30 (0x4 bytes), align: 0
  Segment part 54.            Intra module refs:   sMacTask
           LOCAL                   ADDRESS         
           =====                   =======         
           ?Subroutine62           00004E2D 
    -------------------------------------------------------------------------
<BANKED_CODE,BANK_RELAYS..> 1 (was BANKED_CODE)
  Relative segment, address: CODE 00004E31 - 00004E3D (0xd bytes), align: 0
  Segment part 55.            Intra module refs:   ?Subroutine62
                                                   sMacSend
    -------------------------------------------------------------------------
<BANKED_CODE,BANK_RELAYS..> 1 (was BANKED_CODE)
  Relative segment, address: CODE 00004E3E - 00004E4A (0xd bytes), align: 0
  Segment part 56.            Intra module refs:   sMacTask
           LOCAL                   ADDRESS         
           =====                   =======         
           ?Subroutine61           00004E3E 
    -------------------------------------------------------------------------
<BANKED_CODE,BANK_RELAYS..> 1 (was BANKED_CODE)
  Relative segment, address: CODE 00004E4B - 00004E4E (0x4 bytes), align: 0
  Segment part 57.            Intra module refs:   sMacTask
           LOCAL                   ADDRESS         
           =====                   =======         
           ?Subroutine60           00004E4B 
    -------------------------------------------------------------------------
<BANKED_CODE,BANK_RELAYS..> 1 (was BANKED_CODE)
  Relative segment, address: CODE 00004E4F - 00004E53 (0x5 bytes), align: 0
  Segment part 58.            Intra module refs:   ?Subroutine31
                                                   ?Subroutine32
                                                   ?Subroutine36
                                                   ?Subroutine37
                                                   ?Subroutine60
                                                   Segment part 82
           LOCAL                   ADDRESS         
           =====                   =======         
           ?Subroutine87           00004E4F 
    -------------------------------------------------------------------------
<BANKED_CODE,BANK_RELAYS..> 1 (was BANKED_CODE)
  Relative segment, address: CODE 00004E54 - 00004E57 (0x4 bytes), align: 0
  Segment part 59.            Intra module refs:   sMacTask
           LOCAL                   ADDRESS         
           =====                   =======         
           ?Subroutine59           00004E54 
    -------------------------------------------------------------------------
<BANKED_CODE,BANK_RELAYS..> 1 (was BANKED_CODE)
  Relative segment, address: CODE 00004E58 - 00004E5E (0x7 bytes), align: 0
  Segment part 60.            Intra module refs:   sMacTask
           LOCAL                   ADDRESS         
           =====                   =======         
           ?Subroutine58           00004E58 
    -------------------------------------------------------------------------
<BANKED_CODE,BANK_RELAYS..> 1 (was BANKED_CODE)
  Relative segment, address: CODE 00004E5F - 00004E64 (0x6 bytes), align: 0
  Segment part 61.            Intra module refs:   sMacTask
           LOCAL                   ADDRESS         
           =====                   =======         
           ?Subroutine57           00004E5F 
    -------------------------------------------------------------------------
<BANKED_CODE,BANK_RELAYS..> 1 (was BANKED_CODE)
  Relative segment, address: CODE 00004E65 - 00004E6B (0x7 bytes), align: 0
  Segment part 62.            Intra module refs:   sMacTask
           LOCAL                   ADDRESS         
           =====                   =======         
           ?Subroutine56           00004E65 
    -------------------------------------------------------------------------
<BANKED_CODE,BANK_RELAYS..> 1 (was BANKED_CODE)
  Relative segment, address: CODE 00004E6C - 00004E70 (0x5 bytes), align: 0
  Segment part 63.            Intra module refs:   sMacTask
           LOCAL                   ADDRESS         
           =====                   =======         
           ?Subroutine55           00004E6C 
    -------------------------------------------------------------------------
<BANKED_CODE,BANK_RELAYS..> 1 (was BANKED_CODE)
  Relative segment, address: CODE 00004E71 - 00004E79 (0x9 bytes), align: 0
  Segment part 64.            Intra module refs:   ?Subroutine55
                                                   sMacTask
           LOCAL                   ADDRESS         
           =====                   =======         
           ?Subroutine95           00004E71 
    -------------------------------------------------------------------------
<BANKED_CODE,BANK_RELAYS..> 1 (was BANKED_CODE)
  Relative segment, address: CODE 00004E7A - 00004E82 (0x9 bytes), align: 0
  Segment part 65.            Intra module refs:   sMacTask
           LOCAL                   ADDRESS         
           =====                   =======         
           ?Subroutine50           00004E7A 
    -------------------------------------------------------------------------
<BANKED_CODE,BANK_RELAYS..> 1 (was BANKED_CODE)
  Relative segment, address: CODE 00004E83 - 00004E8B (0x9 bytes), align: 0
  Segment part 66.            Intra module refs:   sMacTask
           LOCAL                   ADDRESS         
           =====                   =======         
           ?Subroutine47           00004E83 
    -------------------------------------------------------------------------
<BANKED_CODE,BANK_RELAYS..> 1 (was BANKED_CODE)
  Relative segment, address: CODE 00004E8C - 00004E8F (0x4 bytes), align: 0
  Segment part 67.            Intra module refs:   sMacTask
           LOCAL                   ADDRESS         
           =====                   =======         
           ?Subroutine46           00004E8C 
    -------------------------------------------------------------------------
<BANKED_CODE,BANK_RELAYS..> 1 (was BANKED_CODE)
  Relative segment, address: CODE 00004E90 - 00004E94 (0x5 bytes), align: 0
  Segment part 68.            Intra module refs:   ?Subroutine23
                                                   ?Subroutine45
                                                   ?Subroutine46
           LOCAL                   ADDRESS         
           =====                   =======         
           ?Subroutine92           00004E90 
    -------------------------------------------------------------------------
<BANKED_CODE,BANK_RELAYS..> 1 (was BANKED_CODE)
  Relative segment, address: CODE 00004E95 - 00004E99 (0x5 bytes), align: 0
  Segment part 69.            Intra module refs:   sMacTask
           LOCAL                   ADDRESS         
           =====                   =======         
           ?Subroutine44           00004E95 
    -------------------------------------------------------------------------
<BANKED_CODE,BANK_RELAYS..> 1 (was BANKED_CODE)
  Relative segment, address: CODE 00004E9A - 00004EA1 (0x8 bytes), align: 0
  Segment part 70.            Intra module refs:   sMacTask
           LOCAL                   ADDRESS         
           =====                   =======         
           ?Subroutine41           00004E9A 
    -------------------------------------------------------------------------
<BANKED_CODE,BANK_RELAYS..> 1 (was BANKED_CODE)
  Relative segment, address: CODE 00004EA2 - 00004EA5 (0x4 bytes), align: 0
  Segment part 71.            Intra module refs:   sMacTask
           LOCAL                   ADDRESS         
           =====                   =======         
           ?Subroutine38           00004EA2 
    -------------------------------------------------------------------------
<BANKED_CODE,BANK_RELAYS..> 1 (was BANKED_CODE)
  Relative segment, address: CODE 00004EA6 - 00004EB2 (0xd bytes), align: 0
  Segment part 72.            Intra module refs:   ?Subroutine30
                                                   ?Subroutine38
           LOCAL                   ADDRESS         
           =====                   =======         
           ?Subroutine86           00004EA6 
    -------------------------------------------------------------------------
<BANKED_CODE,BANK_RELAYS..> 1 (was BANKED_CODE)
  Relative segment, address: CODE 00004EB3 - 00004EBE (0xc bytes), align: 0
  Segment part 73.            Intra module refs:   sMacTask
           LOCAL                   ADDRESS         
           =====                   =======         
           ?Subroutine36           00004EB3 
    -------------------------------------------------------------------------
<BANKED_CODE,BANK_RELAYS..> 1 (was BANKED_CODE)
  Relative segment, address: CODE 00004EBF - 00004EC2 (0x4 bytes), align: 0
  Segment part 74.            Intra module refs:   sMacTask
           LOCAL                   ADDRESS         
           =====                   =======         
           ?Subroutine35           00004EBF 
    -------------------------------------------------------------------------
<BANKED_CODE,BANK_RELAYS..> 1 (was BANKED_CODE)
  Relative segment, address: CODE 00004EC3 - 00004EC7 (0x5 bytes), align: 0
  Segment part 75.            Intra module refs:   ?Subroutine34
                                                   ?Subroutine35
           LOCAL                   ADDRESS         
           =====                   =======         
           ?Subroutine90           00004EC3 
    -------------------------------------------------------------------------
<BANKED_CODE,BANK_RELAYS..> 1 (was BANKED_CODE)
  Relative segment, address: CODE 00004EC8 - 00004ED0 (0x9 bytes), align: 0
  Segment part 76.            Intra module refs:   sMacTask
           LOCAL                   ADDRESS         
           =====                   =======         
           ?Subroutine34           00004EC8 
    -------------------------------------------------------------------------
<BANKED_CODE,BANK_RELAYS..> 1 (was BANKED_CODE)
  Relative segment, address: CODE 00004ED1 - 00004ED4 (0x4 bytes), align: 0
  Segment part 77.            Intra module refs:   sMacTask
           LOCAL                   ADDRESS         
           =====                   =======         
           ?Subroutine33           00004ED1 
    -------------------------------------------------------------------------
<BANKED_CODE,BANK_RELAYS..> 1 (was BANKED_CODE)
  Relative segment, address: CODE 00004ED5 - 00004EE1 (0xd bytes), align: 0
  Segment part 78.            Intra module refs:   sMacTask
           LOCAL                   ADDRESS         
           =====                   =======         
           ?Subroutine32           00004ED5 
    -------------------------------------------------------------------------
<BANKED_CODE,BANK_RELAYS..> 1 (was BANKED_CODE)
  Relative segment, address: CODE 00004EE2 - 00004EEE (0xd bytes), align: 0
  Segment part 79.            Intra module refs:   sMacTask
           LOCAL                   ADDRESS         
           =====                   =======         
           ?Subroutine31           00004EE2 
    -------------------------------------------------------------------------
<BANKED_CODE,BANK_RELAYS..> 1 (was BANKED_CODE)
  Relative segment, address: CODE 00004EEF - 00004EF3 (0x5 bytes), align: 0
  Segment part 80.            Intra module refs:   sMacTask
           LOCAL                   ADDRESS         
           =====                   =======         
           ?Subroutine30           00004EEF 
    -------------------------------------------------------------------------
<BANKED_CODE,BANK_RELAYS..> 1 (was BANKED_CODE)
  Relative segment, address: CODE 00004EF4 - 00004EF6 (0x3 bytes), align: 0
  Segment part 81.            Intra module refs:   sMacTask
           LOCAL                   ADDRESS         
           =====                   =======         
           ?Subroutine29           00004EF4 
    -------------------------------------------------------------------------
<BANKED_CODE,BANK_RELAYS..> 1 (was BANKED_CODE)
  Relative segment, address: CODE 00004EF7 - 00004EFD (0x7 bytes), align: 0
  Segment part 82.            Intra module refs:   ?Subroutine29
                                                   sMacCmdNetSearchResp
    -------------------------------------------------------------------------
<BANKED_CODE,BANK_RELAYS..> 1 (was BANKED_CODE)
  Relative segment, address: CODE 00004EFE - 00004F06 (0x9 bytes), align: 0
  Segment part 83.            Intra module refs:   ?Subroutine84
                                                   Segment part 82
           LOCAL                   ADDRESS         
           =====                   =======         
           ?Subroutine106          00004EFE 
    -------------------------------------------------------------------------
<BANKED_CODE,BANK_RELAYS..> 1 (was BANKED_CODE)
  Relative segment, address: CODE 00004F07 - 00004F0D (0x7 bytes), align: 0
  Segment part 84.            Intra module refs:   sMacTask
           LOCAL                   ADDRESS         
           =====                   =======         
           ?Subroutine28           00004F07 
    -------------------------------------------------------------------------
<BANKED_CODE,BANK_RELAYS..> 1 (was BANKED_CODE)
  Relative segment, address: CODE 00004F0E - 00004F16 (0x9 bytes), align: 0
  Segment part 85.            Intra module refs:   ?Subroutine28
                                                   ?Subroutine9
           LOCAL                   ADDRESS         
           =====                   =======         
           ?Subroutine84           00004F0E 
    -------------------------------------------------------------------------
<BANKED_CODE,BANK_RELAYS..> 1 (was BANKED_CODE)
  Relative segment, address: CODE 00004F17 - 00004F1A (0x4 bytes), align: 0
  Segment part 86.            Intra module refs:   sMacTask
           LOCAL                   ADDRESS         
           =====                   =======         
           ?Subroutine27           00004F17 
    -------------------------------------------------------------------------
<BANKED_CODE,BANK_RELAYS..> 1 (was BANKED_CODE)
  Relative segment, address: CODE 00004F1B - 00004F26 (0xc bytes), align: 0
  Segment part 87.            Intra module refs:   ?Subroutine27
                                                   sMacTask
    -------------------------------------------------------------------------
<BANKED_CODE,BANK_RELAYS..> 1 (was BANKED_CODE)
  Relative segment, address: CODE 00004F27 - 00004F29 (0x3 bytes), align: 0
  Segment part 88.            Intra module refs:   sMacTask
           LOCAL                   ADDRESS         
           =====                   =======         
           ?Subroutine26           00004F27 
    -------------------------------------------------------------------------
<BANKED_CODE,BANK_RELAYS..> 1 (was BANKED_CODE)
  Relative segment, address: CODE 00004F2A - 00004F30 (0x7 bytes), align: 0
  Segment part 89.            Intra module refs:   ?Subroutine26
    -------------------------------------------------------------------------
<BANKED_CODE,BANK_RELAYS..> 1 (was BANKED_CODE)
  Relative segment, address: CODE 00004F31 - 00004F31 (0x1 bytes), align: 0
  Segment part 90.            Intra module refs:   ?Subroutine18
                                                   ?Subroutine25
                                                   ?Subroutine50
                                                   ?Subroutine56
                                                   ?Subroutine57
                                                   ?Subroutine58
                                                   PhyDataIndication
                                                   Segment part 89
                                                   sMacTask
           LOCAL                   ADDRESS         
           =====                   =======         
           ?Subroutine83           00004F31 
    -------------------------------------------------------------------------
<BANKED_CODE,BANK_RELAYS..> 1 (was BANKED_CODE)
  Relative segment, address: CODE 00004F32 - 00004F37 (0x6 bytes), align: 0
  Segment part 91.            Intra module refs:   ?Subroutine83
                                                   sMacTask
    -------------------------------------------------------------------------
<BANKED_CODE,BANK_RELAYS..> 1 (was BANKED_CODE)
  Relative segment, address: CODE 00004F38 - 00004F40 (0x9 bytes), align: 0
  Segment part 92.            Intra module refs:   sMacTask
           LOCAL                   ADDRESS         
           =====                   =======         
           ?Subroutine25           00004F38 
    -------------------------------------------------------------------------
<BANKED_CODE,BANK_RELAYS..> 1 (was BANKED_CODE)
  Relative segment, address: CODE 00004F41 - 00004F4E (0xe bytes), align: 0
  Segment part 93.            Intra module refs:   sMacTask
           LOCAL                   ADDRESS         
           =====                   =======         
           ?Subroutine24           00004F41 
    -------------------------------------------------------------------------
<BANKED_CODE,BANK_RELAYS..> 1 (was BANKED_CODE)
  Relative segment, address: CODE 00004F4F - 00004F56 (0x8 bytes), align: 0
  Segment part 94.            Intra module refs:   ?Subroutine24
                                                   sMacTask
    -------------------------------------------------------------------------
<BANKED_CODE,BANK_RELAYS..> 1 (was BANKED_CODE)
  Relative segment, address: CODE 00004F57 - 00004F61 (0xb bytes), align: 0
  Segment part 95.            Intra module refs:   sMacTask
           LOCAL                   ADDRESS         
           =====                   =======         
           ?Subroutine23           00004F57 
    -------------------------------------------------------------------------
<BANKED_CODE,BANK_RELAYS..> 1 (was BANKED_CODE)
  Relative segment, address: CODE 00004F62 - 00004F64 (0x3 bytes), align: 0
  Segment part 96.            Intra module refs:   sMacTask
           LOCAL                   ADDRESS         
           =====                   =======         
           ?Subroutine22           00004F62 
    -------------------------------------------------------------------------
<BANKED_CODE,BANK_RELAYS..> 1 (was BANKED_CODE)
  Relative segment, address: CODE 00004F65 - 00004F6B (0x7 bytes), align: 0
  Segment part 97.            Intra module refs:   ?Subroutine22
                                                   sMacTask
    -------------------------------------------------------------------------
<BANKED_CODE,BANK_RELAYS..> 1 (was BANKED_CODE)
  Relative segment, address: CODE 00004F6C - 00004F6F (0x4 bytes), align: 0
  Segment part 98.            Intra module refs:   sMacTask
           LOCAL                   ADDRESS         
           =====                   =======         
           ?Subroutine21           00004F6C 
    -------------------------------------------------------------------------
<BANKED_CODE,BANK_RELAYS..> 1 (was BANKED_CODE)
  Relative segment, address: CODE 00004F70 - 00004F77 (0x8 bytes), align: 0
  Segment part 99.            Intra module refs:   ?Subroutine15
                                                   ?Subroutine20
                                                   ?Subroutine21
           LOCAL                   ADDRESS         
           =====                   =======         
           ?Subroutine82           00004F70 
    -------------------------------------------------------------------------
<BANKED_CODE,BANK_RELAYS..> 1 (was BANKED_CODE)
  Relative segment, address: CODE 00004F78 - 00004F82 (0xb bytes), align: 0
  Segment part 100.           Intra module refs:   sMacTask
           LOCAL                   ADDRESS         
           =====                   =======         
           ?Subroutine20           00004F78 
    -------------------------------------------------------------------------
<BANKED_CODE,BANK_RELAYS..> 1 (was BANKED_CODE)
  Relative segment, address: CODE 00004F83 - 00004F8B (0x9 bytes), align: 0
  Segment part 101.           Intra module refs:   sMacTask
           LOCAL                   ADDRESS         
           =====                   =======         
           ?Subroutine19           00004F83 
    -------------------------------------------------------------------------
<BANKED_CODE,BANK_RELAYS..> 1 (was BANKED_CODE)
  Relative segment, address: CODE 00004F8C - 00004F8F (0x4 bytes), align: 0
  Segment part 102.           Intra module refs:   ?Subroutine19
                                                   ?Subroutine44
           LOCAL                   ADDRESS         
           =====                   =======         
           ?Subroutine91           00004F8C 
    -------------------------------------------------------------------------
<BANKED_CODE,BANK_RELAYS..> 1 (was BANKED_CODE)
  Relative segment, address: CODE 00004F90 - 00004F92 (0x3 bytes), align: 0
  Segment part 103.           Intra module refs:   ?Subroutine90
                                                   ?Subroutine91
           LOCAL                   ADDRESS         
           =====                   =======         
           ?Subroutine101          00004F90 
    -------------------------------------------------------------------------
<BANKED_CODE,BANK_RELAYS..> 1 (was BANKED_CODE)
  Relative segment, address: CODE 00004F93 - 00004F9A (0x8 bytes), align: 0
  Segment part 104.           Intra module refs:   ?Subroutine101
                                                   Segment part 97
    -------------------------------------------------------------------------
<BANKED_CODE,BANK_RELAYS..> 1 (was BANKED_CODE)
  Relative segment, address: CODE 00004F9B - 00004FA4 (0xa bytes), align: 0
  Segment part 105.           Intra module refs:   sMacInit
                                                   sMacTask
           LOCAL                   ADDRESS         
           =====                   =======         
           ?Subroutine18           00004F9B 
    -------------------------------------------------------------------------
<BANKED_CODE,BANK_RELAYS..> 1 (was BANKED_CODE)
  Relative segment, address: CODE 00004FA5 - 00004FB5 (0x11 bytes), align: 0
  Segment part 106.           Intra module refs:   sMacTask
           LOCAL                   ADDRESS         
           =====                   =======         
           ?Subroutine17           00004FA5 
    -------------------------------------------------------------------------
<BANKED_CODE,BANK_RELAYS..> 1 (was BANKED_CODE)
  Relative segment, address: CODE 00004FB6 - 00004FB9 (0x4 bytes), align: 0
  Segment part 107.           Intra module refs:   sMacTask
           LOCAL                   ADDRESS         
           =====                   =======         
           ?Subroutine16           00004FB6 
    -------------------------------------------------------------------------
<BANKED_CODE,BANK_RELAYS..> 1 (was BANKED_CODE)
  Relative segment, address: CODE 00004FBA - 00004FBF (0x6 bytes), align: 0
  Segment part 108.           Intra module refs:   ?Subroutine11
                                                   ?Subroutine16
           LOCAL                   ADDRESS         
           =====                   =======         
           ?Subroutine88           00004FBA 
    -------------------------------------------------------------------------
<BANKED_CODE,BANK_RELAYS..> 1 (was BANKED_CODE)
  Relative segment, address: CODE 00004FC0 - 00004FCB (0xc bytes), align: 0
  Segment part 109.           Intra module refs:   ?Subroutine82
                                                   ?Subroutine88
           LOCAL                   ADDRESS         
           =====                   =======         
           ?Subroutine100          00004FC0 
    -------------------------------------------------------------------------
<BANKED_CODE,BANK_RELAYS..> 1 (was BANKED_CODE)
  Relative segment, address: CODE 00004FCC - 00004FD1 (0x6 bytes), align: 0
  Segment part 110.           Intra module refs:   sMacTask
           LOCAL                   ADDRESS         
           =====                   =======         
           ?Subroutine15           00004FCC 
    -------------------------------------------------------------------------
<BANKED_CODE,BANK_RELAYS..> 1 (was BANKED_CODE)
  Relative segment, address: CODE 00004FD2 - 00004FDE (0xd bytes), align: 0
  Segment part 111.           Intra module refs:   sMacTask
           LOCAL                   ADDRESS         
           =====                   =======         
           ?Subroutine14           00004FD2 
    -------------------------------------------------------------------------
<BANKED_CODE,BANK_RELAYS..> 1 (was BANKED_CODE)
  Relative segment, address: CODE 00004FDF - 00004FE6 (0x8 bytes), align: 0
  Segment part 112.           Intra module refs:   sMacTask
           LOCAL                   ADDRESS         
           =====                   =======         
           ?Subroutine13           00004FDF 
    -------------------------------------------------------------------------
<BANKED_CODE,BANK_RELAYS..> 1 (was BANKED_CODE)
  Relative segment, address: CODE 00004FE7 - 00004FEC (0x6 bytes), align: 0
  Segment part 113.           Intra module refs:   sMacTask
           LOCAL                   ADDRESS         
           =====                   =======         
           ?Subroutine12           00004FE7 
    -------------------------------------------------------------------------
<BANKED_CODE,BANK_RELAYS..> 1 (was BANKED_CODE)
  Relative segment, address: CODE 00004FED - 00004FF2 (0x6 bytes), align: 0
  Segment part 114.           Intra module refs:   sMacTask
           LOCAL                   ADDRESS         
           =====                   =======         
           ?Subroutine11           00004FED 
    -------------------------------------------------------------------------
<BANKED_CODE,BANK_RELAYS..> 1 (was BANKED_CODE)
  Relative segment, address: CODE 00004FF3 - 00005000 (0xe bytes), align: 0
  Segment part 115.           Intra module refs:   sMacTask
           LOCAL                   ADDRESS         
           =====                   =======         
           ?Subroutine10           00004FF3 
    -------------------------------------------------------------------------
<BANKED_CODE,BANK_RELAYS..> 1 (was BANKED_CODE)
  Relative segment, address: CODE 00005001 - 00005008 (0x8 bytes), align: 0
  Segment part 116.           Intra module refs:   sMacTask
           LOCAL                   ADDRESS         
           =====                   =======         
           ?Subroutine9            00005001 
    -------------------------------------------------------------------------
<BANKED_CODE,BANK_RELAYS..> 1 (was BANKED_CODE)
  Relative segment, address: CODE 00005009 - 00005018 (0x10 bytes), align: 0
  Segment part 117.           Intra module refs:   sMacTask
           LOCAL                   ADDRESS         
           =====                   =======         
           ?Subroutine8            00005009 
    -------------------------------------------------------------------------
<BANKED_CODE,BANK_RELAYS..> 1 (was BANKED_CODE)
  Relative segment, address: CODE 00005019 - 00005025 (0xd bytes), align: 0
  Segment part 118.           Intra module refs:   ?Subroutine33
                                                   ?Subroutine8
           LOCAL                   ADDRESS         
           =====                   =======         
           ?Subroutine89           00005019 
    -------------------------------------------------------------------------
<BANKED_CODE,BANK_RELAYS..> 1 (was BANKED_CODE)
  Relative segment, address: CODE 00005026 - 0000502A (0x5 bytes), align: 0
  Segment part 119.           Intra module refs:   ?Subroutine80
                                                   ?Subroutine84
                                                   ?Subroutine86
                                                   ?Subroutine87
                                                   ?Subroutine89
                                                   ?Subroutine94
                                                   sMacSend
           LOCAL                   ADDRESS         
           =====                   =======         
           ?Subroutine103          00005026 
    -------------------------------------------------------------------------
<BANKED_CODE,BANK_RELAYS..> 1 (was BANKED_CODE)
  Relative segment, address: CODE 0000502B - 00005045 (0x1b bytes), align: 0
  Segment part 120.           Intra module refs:   ?Subroutine10
                                                   ?Subroutine8
           LOCAL                   ADDRESS         
           =====                   =======         
           ?Subroutine80           0000502B 
    -------------------------------------------------------------------------
<BANKED_CODE,BANK_RELAYS..> 1 (was BANKED_CODE)
  Relative segment, address: CODE 00005046 - 00005063 (0x1e bytes), align: 0
  Segment part 121.           Intra module refs:   sMacTask
           LOCAL                   ADDRESS         
           =====                   =======         
           ?Subroutine7            00005046 
    -------------------------------------------------------------------------
<BANKED_CODE,BANK_RELAYS..> 1 (was BANKED_CODE)
  Relative segment, address: CODE 00005064 - 00005067 (0x4 bytes), align: 0
  Segment part 122.           Intra module refs:   ?Subroutine7
           LOCAL                   ADDRESS         
           =====                   =======         
           ?Subroutine97           00005064 
    -------------------------------------------------------------------------
<BANKED_CODE,BANK_RELAYS..> 1 (was BANKED_CODE)
  Relative segment, address: CODE 00005068 - 0000506E (0x7 bytes), align: 0
  Segment part 123.           Intra module refs:   ?Subroutine79
                                                   ?Subroutine96
                                                   ?Subroutine97
           LOCAL                   ADDRESS         
           =====                   =======         
           ?Subroutine105          00005068 
    -------------------------------------------------------------------------
<BANKED_CODE,BANK_RELAYS..> 1 (was BANKED_CODE)
  Relative segment, address: CODE 0000506F - 00005070 (0x2 bytes), align: 0
  Segment part 124.           Intra module refs:   PhySend
           LOCAL                   ADDRESS         
           =====                   =======         
           ?Subroutine2            0000506F 
    -------------------------------------------------------------------------
<BANKED_CODE,BANK_RELAYS..> 1 (was BANKED_CODE)
  Relative segment, address: CODE 00005071 - 00005078 (0x8 bytes), align: 0
  Segment part 125.           Intra module refs:   ?Subroutine2
                                                   PhyDataIndication
                                                   sMacCmdNetSearchResp
                                                   sMacTask
    -------------------------------------------------------------------------
<BANKED_CODE,BANK_RELAYS..> 1 (was BANKED_CODE)
  Relative segment, address: CODE 00005079 - 0000507D (0x5 bytes), align: 0
  Segment part 128.           Intra module refs:   sMacDeviceTypeGet::?relay
           ENTRY                   ADDRESS         REF BY
           =====                   =======         ======
           sMacDeviceTypeGet       00005079 
    -------------------------------------------------------------------------
<BANKED_CODE,BANK_RELAYS..> 1 (was BANKED_CODE)
  Relative segment, address: CODE 0000507E - 000050AC (0x2f bytes), align: 0
  Segment part 130.           Intra module refs:   sMacAddressGet::?relay
           ENTRY                   ADDRESS         REF BY
           =====                   =======         ======
           sMacAddressGet          0000507E 
               calls direct
               XSTACK = 00000000 ( 00000008 )
               ISTACK = 00000000 ( 00000002 )
    -------------------------------------------------------------------------
<BANKED_CODE,BANK_RELAYS..> 1 (was BANKED_CODE)
  Relative segment, address: CODE 000050AD - 000050B3 (0x7 bytes), align: 0
  Segment part 134.           Intra module refs:   MsgSendTimeOutCallBack
                                                   sMacJoinReqTimeOutCallBack
                                                   sMacNetSearchTimeOutCallBack
                                                   sMacPingTimeOutCallBack
           LOCAL                   ADDRESS         
           =====                   =======         
           ?Subroutine0            000050AD 
    -------------------------------------------------------------------------
<BANKED_CODE,BANK_RELAYS..> 1 (was BANKED_CODE)
  Relative segment, address: CODE 000050B4 - 000050BA (0x7 bytes), align: 0
  Segment part 135.           Intra module refs:   ?Subroutine0
                                                   AckTimeOutCallBack
                                                   RfRxIndicateIsr
                                                   sMacAddressGet
                                                   sMacDataIndicationCallBackSet
    -------------------------------------------------------------------------
<BANKED_CODE,BANK_RELAYS..> 1 (was BANKED_CODE)
  Relative segment, address: CODE 000050BB - 000050BF (0x5 bytes), align: 0
  Segment part 149.           Intra module refs:   sMacSend
           LOCAL                   ADDRESS         
           =====                   =======         
           ?Subroutine71           000050BB 
    -------------------------------------------------------------------------
<BANKED_CODE,BANK_RELAYS..> 1 (was BANKED_CODE)
  Relative segment, address: CODE 000050C0 - 000050C5 (0x6 bytes), align: 0
  Segment part 150.           Intra module refs:   ?Subroutine71
                                                   sMacCmdNetSearchResp
                                                   sMacInit
                                                   sMacTask
    -------------------------------------------------------------------------
<BANKED_CODE,BANK_RELAYS..> 1 (was BANKED_CODE)
  Relative segment, address: CODE 000050C6 - 000050CB (0x6 bytes), align: 0
  Segment part 151.           Intra module refs:   PhyDataIndication
                                                   PhySend
                                                   sMacDataIndicationCallBackSet
                                                   sMacInit
                                                   sMacTask
           LOCAL                   ADDRESS         
           =====                   =======         
           ?Subroutine65           000050C6 
    -------------------------------------------------------------------------
<BANKED_CODE,BANK_RELAYS..> 1 (was BANKED_CODE)
  Relative segment, address: CODE 000050CC - 000050CC (0x1 bytes), align: 0
  Segment part 152.           Intra module refs:   sMacCmdNetSearchResp
           LOCAL                   ADDRESS         
           =====                   =======         
           ?Subroutine63           000050CC 
    -------------------------------------------------------------------------
<BANKED_CODE,BANK_RELAYS..> 1 (was BANKED_CODE)
  Relative segment, address: CODE 000050CD - 000050D4 (0x8 bytes), align: 0
  Segment part 153.           Intra module refs:   ?Subroutine63
                                                   PhySend
    -------------------------------------------------------------------------
<BANKED_CODE,BANK_RELAYS..> 1 (was BANKED_CODE)
  Relative segment, address: CODE 000050D5 - 000050DA (0x6 bytes), align: 0
  Segment part 154.           Intra module refs:   sMacSend
                                                   sMacTask
           LOCAL                   ADDRESS         
           =====                   =======         
           ?Subroutine51           000050D5 
    -------------------------------------------------------------------------
<BANKED_CODE,BANK_RELAYS..> 1 (was BANKED_CODE)
  Relative segment, address: CODE 000050DB - 000050DE (0x4 bytes), align: 0
  Segment part 155.           Intra module refs:   sMacCmdNetSearchResp
                                                   sMacTask
           LOCAL                   ADDRESS         
           =====                   =======         
           ?Subroutine49           000050DB 
    -------------------------------------------------------------------------
<BANKED_CODE,BANK_RELAYS..> 1 (was BANKED_CODE)
  Relative segment, address: CODE 000050DF - 000050E2 (0x4 bytes), align: 0
  Segment part 156.           Intra module refs:   ?Subroutine12
                                                   ?Subroutine41
                                                   ?Subroutine49
           LOCAL                   ADDRESS         
           =====                   =======         
           ?Subroutine93           000050DF 
    -------------------------------------------------------------------------
<BANKED_CODE,BANK_RELAYS..> 1 (was BANKED_CODE)
  Relative segment, address: CODE 000050E3 - 000050E5 (0x3 bytes), align: 0
  Segment part 157.           Intra module refs:   ?Subroutine80
                                                   ?Subroutine81
                                                   ?Subroutine92
                                                   ?Subroutine93
           LOCAL                   ADDRESS         
           =====                   =======         
           ?Subroutine102          000050E3 
    -------------------------------------------------------------------------
<BANKED_CODE,BANK_RELAYS..> 1 (was BANKED_CODE)
  Relative segment, address: CODE 000050E6 - 000050EB (0x6 bytes), align: 0
  Segment part 158.           Intra module refs:   ?Subroutine102
                                                   ?Subroutine59
    -------------------------------------------------------------------------
<BANKED_CODE,BANK_RELAYS..> 1 (was BANKED_CODE)
  Relative segment, address: CODE 000050EC - 000050EE (0x3 bytes), align: 0
  Segment part 159.           Intra module refs:   sMacCmdNetSearchResp
                                                   sMacTask
           LOCAL                   ADDRESS         
           =====                   =======         
           ?Subroutine48           000050EC 
    -------------------------------------------------------------------------
<BANKED_CODE,BANK_RELAYS..> 1 (was BANKED_CODE)
  Relative segment, address: CODE 000050EF - 000050F2 (0x4 bytes), align: 0
  Segment part 160.           Intra module refs:   ?Subroutine48
                                                   sMacTask
    -------------------------------------------------------------------------
<BANKED_CODE,BANK_RELAYS..> 1 (was BANKED_CODE)
  Relative segment, address: CODE 000050F3 - 000050F7 (0x5 bytes), align: 0
  Segment part 161.           Intra module refs:   ?Subroutine13
                                                   ?Subroutine17
                                                   ?Subroutine47
                                                   Segment part 160
           LOCAL                   ADDRESS         
           =====                   =======         
           ?Subroutine81           000050F3 
    -------------------------------------------------------------------------
<BANKED_CODE,BANK_RELAYS..> 1 (was BANKED_CODE)
  Relative segment, address: CODE 000050F8 - 000050FD (0x6 bytes), align: 0
  Segment part 162.           Intra module refs:   sMacTask
           LOCAL                   ADDRESS         
           =====                   =======         
           ?Subroutine43           000050F8 
    -------------------------------------------------------------------------
<BANKED_CODE,BANK_RELAYS..> 1 (was BANKED_CODE)
  Relative segment, address: CODE 000050FE - 000051E5 (0xe8 bytes), align: 0
  Segment part 163.           Intra module refs:   sMacSend::?relay
           ENTRY                   ADDRESS         REF BY
           =====                   =======         ======
           sMacSend                000050FE 
               calls direct
               XSTACK = 00000002 ( 00000016 )
               ISTACK = 00000000 ( 00000001 )
    -------------------------------------------------------------------------
<BANKED_CODE,BANK_RELAYS..> 1 (was BANKED_CODE)
  Relative segment, address: CODE 000051E6 - 000051E9 (0x4 bytes), align: 0
  Segment part 165.           Intra module refs:   ?Subroutine7
                                                   sMacSend
           LOCAL                   ADDRESS         
           =====                   =======         
           ?Subroutine85           000051E6 
    -------------------------------------------------------------------------
<BANKED_CODE,BANK_RELAYS..> 1 (was BANKED_CODE)
  Relative segment, address: CODE 000051EA - 000051FB (0x12 bytes), align: 0
  Segment part 166.           Intra module refs:   ?Subroutine79
                                                   ?Subroutine85
           LOCAL                   ADDRESS         
           =====                   =======         
           ?Subroutine99           000051EA 
    -------------------------------------------------------------------------
<BANKED_CODE,BANK_RELAYS..> 1 (was BANKED_CODE)
  Relative segment, address: CODE 000051FC - 00005201 (0x6 bytes), align: 0
  Segment part 167.           Intra module refs:   PhyDataIndication
                                                   sMacSend
                                                   sMacTask
           LOCAL                   ADDRESS         
           =====                   =======         
           ?Subroutine68           000051FC 
    -------------------------------------------------------------------------
<BANKED_CODE,BANK_RELAYS..> 1 (was BANKED_CODE)
  Relative segment, address: CODE 00005202 - 00005211 (0x10 bytes), align: 0
  Segment part 168.           Intra module refs:   sMacSend
           LOCAL                   ADDRESS         
           =====                   =======         
           ?Subroutine64           00005202 
    -------------------------------------------------------------------------
<BANKED_CODE,BANK_RELAYS..> 1 (was BANKED_CODE)
  Relative segment, address: CODE 00005212 - 00005216 (0x5 bytes), align: 0
  Segment part 169.           Intra module refs:   sMacTask
           LOCAL                   ADDRESS         
           =====                   =======         
           ?Subroutine54           00005212 
    -------------------------------------------------------------------------
<BANKED_CODE,BANK_RELAYS..> 1 (was BANKED_CODE)
  Relative segment, address: CODE 00005217 - 0000521B (0x5 bytes), align: 0
  Segment part 170.           Intra module refs:   ?Subroutine54
                                                   PhyDataIndication
                                                   sMacSend
                                                   sMacTask
    -------------------------------------------------------------------------
<BANKED_CODE,BANK_RELAYS..> 1 (was BANKED_CODE)
  Relative segment, address: CODE 0000521C - 00005223 (0x8 bytes), align: 0
  Segment part 171.           Intra module refs:   sMacSend
                                                   sMacTask
           LOCAL                   ADDRESS         
           =====                   =======         
           ?Subroutine52           0000521C 
    -------------------------------------------------------------------------
<BANKED_CODE,BANK_RELAYS..> 1 (was BANKED_CODE)
  Relative segment, address: CODE 00005224 - 0000522A (0x7 bytes), align: 0
  Segment part 172.           Intra module refs:   sMacTask
           LOCAL                   ADDRESS         
           =====                   =======         
           ?Subroutine5            00005224 
    -------------------------------------------------------------------------
<BANKED_CODE,BANK_RELAYS..> 1 (was BANKED_CODE)
  Relative segment, address: CODE 0000522B - 0000522D (0x3 bytes), align: 0
  Segment part 173.           Intra module refs:   ?Subroutine5
                                                   PhyDataIndication
    -------------------------------------------------------------------------
<BANKED_CODE,BANK_RELAYS..> 1 (was BANKED_CODE)
  Relative segment, address: CODE 0000522E - 00005233 (0x6 bytes), align: 0
  Segment part 174.           Intra module refs:   PhyDataIndication
                                                   PhySend
                                                   Segment part 173
                                                   sMacSend
                                                   sMacTask
    -------------------------------------------------------------------------
<BANKED_CODE,BANK_RELAYS..> 1 (was BANKED_CODE)
  Relative segment, address: CODE 00005234 - 000052C4 (0x91 bytes), align: 0
  Segment part 175.           Intra module refs:   sMacCmdNetSearchReq::?relay
           LOCAL                   ADDRESS         
           =====                   =======         
           sMacCmdNetSearchReq     00005234 
               calls direct
               XSTACK = 00000027 ( 00000012 )
               ISTACK = 00000000 ( 00000001 )
    -------------------------------------------------------------------------
<BANKED_CODE,BANK_RELAYS..> 1 (was BANKED_CODE)
  Relative segment, address: CODE 000052C5 - 000052C8 (0x4 bytes), align: 0
  Segment part 177.           Intra module refs:   sMacCmdNetSearchReq
                                                   sMacTask
           LOCAL                   ADDRESS         
           =====                   =======         
           ?Subroutine6            000052C5 
    -------------------------------------------------------------------------
<BANKED_CODE,BANK_RELAYS..> 1 (was BANKED_CODE)
  Relative segment, address: CODE 000052C9 - 000052EC (0x24 bytes), align: 0
  Segment part 178.           Intra module refs:   ?Subroutine4
                                                   ?Subroutine6
           LOCAL                   ADDRESS         
           =====                   =======         
           ?Subroutine79           000052C9 
    -------------------------------------------------------------------------
<BANKED_CODE,BANK_RELAYS..> 1 (was BANKED_CODE)
  Relative segment, address: CODE 000052ED - 00005300 (0x14 bytes), align: 0
  Segment part 179.           Intra module refs:   ?Subroutine7
                                                   ?Subroutine79
           LOCAL                   ADDRESS         
           =====                   =======         
           ?Subroutine104          000052ED 
    -------------------------------------------------------------------------
<BANKED_CODE,BANK_RELAYS..> 1 (was BANKED_CODE)
  Relative segment, address: CODE 00005301 - 0000547B (0x17b bytes), align: 0
  Segment part 180.           Intra module refs:   sMacCmdNetSearchResp::?relay
           LOCAL                   ADDRESS         
           =====                   =======         
           sMacCmdNetSearchResp    00005301 
               calls direct
               XSTACK = 00000027 ( 0000001A )
               ISTACK = 00000000 ( 00000001 )
    -------------------------------------------------------------------------
<BANKED_CODE,BANK_RELAYS..> 1 (was BANKED_CODE)
  Relative segment, address: CODE 0000547C - 0000547F (0x4 bytes), align: 0
  Segment part 182.           Intra module refs:   sMacCmdNetSearchReq
                                                   sMacCmdNetSearchResp
                                                   sMacCmdPingPong
                                                   sMacTask
           LOCAL                   ADDRESS         
           =====                   =======         
           ?Subroutine75           0000547C 
    -------------------------------------------------------------------------
<BANKED_CODE,BANK_RELAYS..> 1 (was BANKED_CODE)
  Relative segment, address: CODE 00005480 - 00005489 (0xa bytes), align: 0
  Segment part 183.           Intra module refs:   ?Subroutine73
                                                   ?Subroutine74
                                                   ?Subroutine75
           LOCAL                   ADDRESS         
           =====                   =======         
           ?Subroutine98           00005480 
    -------------------------------------------------------------------------
<BANKED_CODE,BANK_RELAYS..> 1 (was BANKED_CODE)
  Relative segment, address: CODE 0000548A - 0000548C (0x3 bytes), align: 0
  Segment part 184.           Intra module refs:   sMacCmdNetSearchResp
                                                   sMacTask
           LOCAL                   ADDRESS         
           =====                   =======         
           ?Subroutine53           0000548A 
    -------------------------------------------------------------------------
<BANKED_CODE,BANK_RELAYS..> 1 (was BANKED_CODE)
  Relative segment, address: CODE 0000548D - 00005490 (0x4 bytes), align: 0
  Segment part 185.           Intra module refs:   ?Subroutine53
                                                   sMacTask
    -------------------------------------------------------------------------
<BANKED_CODE,BANK_RELAYS..> 1 (was BANKED_CODE)
  Relative segment, address: CODE 00005491 - 00005495 (0x5 bytes), align: 0
  Segment part 186.           Intra module refs:   ?Subroutine43
                                                   ?Subroutine52
                                                   Segment part 174
                                                   Segment part 185
           LOCAL                   ADDRESS         
           =====                   =======         
           ?Subroutine94           00005491 
    -------------------------------------------------------------------------
<BANKED_CODE,BANK_RELAYS..> 1 (was BANKED_CODE)
  Relative segment, address: CODE 00005496 - 0000549B (0x6 bytes), align: 0
  Segment part 187.           Intra module refs:   sMacCmdNetSearchResp
                                                   sMacTask
           LOCAL                   ADDRESS         
           =====                   =======         
           ?Subroutine45           00005496 
    -------------------------------------------------------------------------
<BANKED_CODE,BANK_RELAYS..> 1 (was BANKED_CODE)
  Relative segment, address: CODE 0000549C - 000054A7 (0xc bytes), align: 0
  Segment part 188.           Intra module refs:   sMacCmdNetSearchResp
                                                   sMacInit
           LOCAL                   ADDRESS         
           =====                   =======         
           ?Subroutine42           0000549C 
    -------------------------------------------------------------------------
<BANKED_CODE,BANK_RELAYS..> 1 (was BANKED_CODE)
  Relative segment, address: CODE 000054A8 - 000054B3 (0xc bytes), align: 0
  Segment part 189.           Intra module refs:   sMacCmdNetSearchResp
                                                   sMacTask
           LOCAL                   ADDRESS         
           =====                   =======         
           ?Subroutine37           000054A8 
    -------------------------------------------------------------------------
<BANKED_CODE,BANK_RELAYS..> 1 (was BANKED_CODE)
  Relative segment, address: CODE 000054B4 - 000054C2 (0xf bytes), align: 0
  Segment part 190.           Intra module refs:   sMacCmdNetSearchResp
                                                   sMacCmdPingPong
                                                   sMacTask
           LOCAL                   ADDRESS         
           =====                   =======         
           ?Subroutine4            000054B4 
    -------------------------------------------------------------------------
<BANKED_CODE,BANK_RELAYS..> 1 (was BANKED_CODE)
  Relative segment, address: CODE 000054C3 - 00005563 (0xa1 bytes), align: 0
  Segment part 191.           Intra module refs:   sMacCmdPingPong::?relay
           LOCAL                   ADDRESS         
           =====                   =======         
           sMacCmdPingPong         000054C3 
               calls direct
               XSTACK = 00000028 ( 00000017 )
               ISTACK = 00000000 ( 00000001 )
    -------------------------------------------------------------------------
<BANKED_CODE,BANK_RELAYS..> 1 (was BANKED_CODE)
  Relative segment, address: CODE 00005564 - 0000556D (0xa bytes), align: 0
  Segment part 193.           Intra module refs:   sMacCmdPingPong
                                                   sMacTask
           LOCAL                   ADDRESS         
           =====                   =======         
           ?Subroutine77           00005564 
    -------------------------------------------------------------------------
<BANKED_CODE,BANK_RELAYS..> 1 (was BANKED_CODE)
  Relative segment, address: CODE 0000556E - 0000557A (0xd bytes), align: 0
  Segment part 194.           Intra module refs:   sMacDataIndicationCallBackSet::?relay
           ENTRY                   ADDRESS         REF BY
           =====                   =======         ======
           sMacDataIndicationCallBackSet
                                   0000556E 
               ISTACK = 00000000 ( 00000002 )
    -------------------------------------------------------------------------
<BANKED_CODE,BANK_RELAYS..> 1 (was BANKED_CODE)
  Relative segment, address: CODE 0000557B - 00005767 (0x1ed bytes), align: 0
  Segment part 196.           Intra module refs:   PhyDataIndication::?relay
           LOCAL                   ADDRESS         
           =====                   =======         
           PhyDataIndication       0000557B 
               calls direct
               XSTACK = 00000000 ( 0000001A )
               ISTACK = 00000000 ( 00000001 )
    -------------------------------------------------------------------------
<BANKED_CODE,BANK_RELAYS..> 1 (was BANKED_CODE)
  Relative segment, address: CODE 00005768 - 0000576B (0x4 bytes), align: 0
  Segment part 198.           Intra module refs:   PhyDataIndication
                                                   sMacTask
           LOCAL                   ADDRESS         
           =====                   =======         
           ?Subroutine67           00005768 
    -------------------------------------------------------------------------
<BANKED_CODE,BANK_RELAYS..> 1 (was BANKED_CODE)
  Relative segment, address: CODE 0000576C - 00005773 (0x8 bytes), align: 0
  Segment part 199.           Intra module refs:   ?Subroutine67
                                                   Segment part 55
           LOCAL                   ADDRESS         
           =====                   =======         
           ?Subroutine96           0000576C 
    -------------------------------------------------------------------------
<BANKED_CODE,BANK_RELAYS..> 1 (was BANKED_CODE)
  Relative segment, address: CODE 00005774 - 00005779 (0x6 bytes), align: 0
  Segment part 200.           Intra module refs:   PhyDataIndication
                                                   PhySend
                                                   sMacTask
           LOCAL                   ADDRESS         
           =====                   =======         
           ?Subroutine40           00005774 
    -------------------------------------------------------------------------
<BANKED_CODE,BANK_RELAYS..> 1 (was BANKED_CODE)
  Relative segment, address: CODE 0000577A - 0000577E (0x5 bytes), align: 0
  Segment part 201.           Intra module refs:   sMacTask
           LOCAL                   ADDRESS         
           =====                   =======         
           ?Subroutine39           0000577A 
    -------------------------------------------------------------------------
<BANKED_CODE,BANK_RELAYS..> 1 (was BANKED_CODE)
  Relative segment, address: CODE 0000577F - 00005784 (0x6 bytes), align: 0
  Segment part 202.           Intra module refs:   ?Subroutine39
                                                   PhyDataIndication
                                                   sMacTask
    -------------------------------------------------------------------------
<BANKED_CODE,BANK_RELAYS..> 1 (was BANKED_CODE)
  Relative segment, address: CODE 00005785 - 0000591A (0x196 bytes), align: 0
  Segment part 203.           Intra module refs:   PhySend::?relay
           LOCAL                   ADDRESS         
           =====                   =======         
           PhySend                 00005785 
               calls direct
               XSTACK = 00000027 ( 0000001F )
               ISTACK = 00000000 ( 00000001 )
    -------------------------------------------------------------------------
<BANKED_CODE,BANK_RELAYS..> 1 (was BANKED_CODE)
  Relative segment, address: CODE 0000591B - 0000592E (0x14 bytes), align: 0
  Segment part 205.           Intra module refs:   RfRxIndicateIsr::?relay
           LOCAL                   ADDRESS         
           =====                   =======         
           RfRxIndicateIsr         0000591B 
               calls direct, is indirectly called
               ISTACK = 00000000 ( 00000002 )
    -------------------------------------------------------------------------
<XDATA_ROM_C> 1 (was XDATA_ROM_C)
  Relative segment, address: CONST 00008359 - 0000835C (0x4 bytes), align: 0
  Segment part 20.            Intra module refs:   sMacInit
           ENTRY                   ADDRESS         REF BY
           =====                   =======         ======
           __Constant_3880c        00008359 
    -------------------------------------------------------------------------
<XDATA_ROM_C> 1 (was XDATA_ROM_C)
  Relative segment, address: CONST 0000835D - 00008360 (0x4 bytes), align: 0
  Segment part 21.            Intra module refs:   sMacInit
           ENTRY                   ADDRESS         REF BY
           =====                   =======         ======
           __Constant_3880d        0000835D 
    -------------------------------------------------------------------------
<XDATA_ROM_C> 1 (was XDATA_ROM_C)
  Relative segment, address: CONST 00008361 - 00008364 (0x4 bytes), align: 0
  Segment part 22.            Intra module refs:   sMacSend
                                                   sMacTask
                                                   sNwkAddRoute (sNwk)
                                                   sNwkDelateRoute (sNwk)
                                                   sNwkGetNextHop (sNwk)
                                                   sNwkTask (sNwk)
           ENTRY                   ADDRESS         REF BY
           =====                   =======         ======
           __Constant_ffffffff     00008361 
    -------------------------------------------------------------------------
<XDATA_ROM_C> 1 (was XDATA_ROM_C)
  Relative segment, address: CONST 00008365 - 00008368 (0x4 bytes), align: 0
  Segment part 24.            Intra module refs:   sMacTask
           ENTRY                   ADDRESS         REF BY
           =====                   =======         ======
           __Constant_ce4          00008365 
    -------------------------------------------------------------------------
<XDATA_ROM_C> 1 (was XDATA_ROM_C)
  Relative segment, address: CONST 00008369 - 0000836C (0x4 bytes), align: 0
  Segment part 26.            Intra module refs:   PhyDataIndication
                                                   PhySend
                                                   sMacCmdNetSearchResp
                                                   sMacTask
           ENTRY                   ADDRESS         REF BY
           =====                   =======         ======
           __Constant_ff0000       00008369 
    -------------------------------------------------------------------------
<XDATA_ROM_C> 1 (was XDATA_ROM_C)
  Relative segment, address: CONST 0000836D - 00008370 (0x4 bytes), align: 0
  Segment part 27.            Intra module refs:   sMacCmdNetSearchResp
                                                   sMacTask
           ENTRY                   ADDRESS         REF BY
           =====                   =======         ======
           __Constant_ff00         0000836D 
    -------------------------------------------------------------------------
<XDATA_ROM_C> 1 (was XDATA_ROM_C)
  Relative segment, address: CONST 00008371 - 00008374 (0x4 bytes), align: 0
  Segment part 28.            Intra module refs:   sMacTask
           ENTRY                   ADDRESS         REF BY
           =====                   =======         ======
           __Constant_294          00008371 
    -------------------------------------------------------------------------
<BANKED_CODE,BANK_RELAYS..> 1 (was BANK_RELAYS)
  Relative segment, address: CODE 00003083 - 00003088 (0x6 bytes), align: 0
  Segment part 31.            Intra module refs:   sMacTask
           LOCAL                   ADDRESS         
           =====                   =======         
           sMacNetSearchTimeOutCallBack::?relay
                                   00003083 
    -------------------------------------------------------------------------
<BANKED_CODE,BANK_RELAYS..> 1 (was BANK_RELAYS)
  Relative segment, address: CODE 00003089 - 0000308E (0x6 bytes), align: 0
  Segment part 33.            Intra module refs:   sMacTask
           LOCAL                   ADDRESS         
           =====                   =======         
           sMacPingTimeOutCallBack::?relay
                                   00003089 
    -------------------------------------------------------------------------
<BANKED_CODE,BANK_RELAYS..> 1 (was BANK_RELAYS)
  Relative segment, address: CODE 0000308F - 00003094 (0x6 bytes), align: 0
  Segment part 35.            Intra module refs:   sMacTask
           LOCAL                   ADDRESS         
           =====                   =======         
           sMacJoinReqTimeOutCallBack::?relay
                                   0000308F 
    -------------------------------------------------------------------------
<BANKED_CODE,BANK_RELAYS..> 1 (was BANK_RELAYS)
  Relative segment, address: CODE 00003095 - 0000309A (0x6 bytes), align: 0
  Segment part 37.
           ENTRY                   ADDRESS         REF BY
           =====                   =======         ======
           sMacInit::?relay        00003095        sNwkInit (sNwk)
    -------------------------------------------------------------------------
<BANKED_CODE,BANK_RELAYS..> 1 (was BANK_RELAYS)
  Relative segment, address: CODE 0000309B - 000030A0 (0x6 bytes), align: 0
  Segment part 40.            Intra module refs:   sMacTask
           LOCAL                   ADDRESS         
           =====                   =======         
           AckTimeOutCallBack::?relay
                                   0000309B 
    -------------------------------------------------------------------------
<BANKED_CODE,BANK_RELAYS..> 1 (was BANK_RELAYS)
  Relative segment, address: CODE 000030A1 - 000030A6 (0x6 bytes), align: 0
  Segment part 42.            Intra module refs:   sMacTask
           LOCAL                   ADDRESS         
           =====                   =======         
           MsgSendTimeOutCallBack::?relay
                                   000030A1 
    -------------------------------------------------------------------------
<BANKED_CODE,BANK_RELAYS..> 1 (was BANK_RELAYS)
  Relative segment, address: CODE 000030A7 - 000030AC (0x6 bytes), align: 0
  Segment part 44.
           ENTRY                   ADDRESS         REF BY
           =====                   =======         ======
           sMacTask::?relay        000030A7        tasksArr (sysTask)
    -------------------------------------------------------------------------
<BANKED_CODE,BANK_RELAYS..> 1 (was BANK_RELAYS)
  Relative segment, address: CODE 000030AD - 000030B2 (0x6 bytes), align: 0
  Segment part 129.
           ENTRY                   ADDRESS         REF BY
           =====                   =======         ======
           sMacDeviceTypeGet::?relay
                                   000030AD        sNwkTask (sNwk)
    -------------------------------------------------------------------------
<BANKED_CODE,BANK_RELAYS..> 1 (was BANK_RELAYS)
  Relative segment, address: CODE 000030B3 - 000030B8 (0x6 bytes), align: 0
  Segment part 131.
           ENTRY                   ADDRESS         REF BY
           =====                   =======         ======
           sMacAddressGet::?relay
                                   000030B3        ApplicationInit (Application)
                                                   sNwkTask (sNwk)
    -------------------------------------------------------------------------
<BANKED_CODE,BANK_RELAYS..> 1 (was BANK_RELAYS)
  Relative segment, address: CODE 000030B9 - 000030BE (0x6 bytes), align: 0
  Segment part 164.
           ENTRY                   ADDRESS         REF BY
           =====                   =======         ======
           sMacSend::?relay        000030B9        sNwkTask (sNwk)
    -------------------------------------------------------------------------
<BANKED_CODE,BANK_RELAYS..> 1 (was BANK_RELAYS)
  Relative segment, address: CODE 000030BF - 000030C4 (0x6 bytes), align: 0
  Segment part 176.           Intra module refs:   sMacTask
           LOCAL                   ADDRESS         
           =====                   =======         
           sMacCmdNetSearchReq::?relay
                                   000030BF 
    -------------------------------------------------------------------------
<BANKED_CODE,BANK_RELAYS..> 1 (was BANK_RELAYS)
  Relative segment, address: CODE 000030C5 - 000030CA (0x6 bytes), align: 0
  Segment part 181.           Intra module refs:   sMacTask
           LOCAL                   ADDRESS         
           =====                   =======         
           sMacCmdNetSearchResp::?relay
                                   000030C5 
    -------------------------------------------------------------------------
<BANKED_CODE,BANK_RELAYS..> 1 (was BANK_RELAYS)
  Relative segment, address: CODE 000030CB - 000030D0 (0x6 bytes), align: 0
  Segment part 192.           Intra module refs:   sMacTask
           LOCAL                   ADDRESS         
           =====                   =======         
           sMacCmdPingPong::?relay
                                   000030CB 
    -------------------------------------------------------------------------
<BANKED_CODE,BANK_RELAYS..> 1 (was BANK_RELAYS)
  Relative segment, address: CODE 000030D1 - 000030D6 (0x6 bytes), align: 0
  Segment part 195.
           ENTRY                   ADDRESS         REF BY
           =====                   =======         ======
           sMacDataIndicationCallBackSet::?relay
                                   000030D1        sNwkInit (sNwk)
    -------------------------------------------------------------------------
<BANKED_CODE,BANK_RELAYS..> 1 (was BANK_RELAYS)
  Relative segment, address: CODE 000032E1 - 000032E6 (0x6 bytes), align: 0
  Segment part 197.           Intra module refs:   RfRxIndicateIsr
           LOCAL                   ADDRESS         
           =====                   =======         
           PhyDataIndication::?relay
                                   000032E1 
    -------------------------------------------------------------------------
<BANKED_CODE,BANK_RELAYS..> 1 (was BANK_RELAYS)
  Relative segment, address: CODE 000030DD - 000030E2 (0x6 bytes), align: 0
  Segment part 204.           Intra module refs:   sMacCmdNetSearchReq
                                                   sMacCmdNetSearchResp
                                                   sMacCmdPingPong
                                                   sMacTask
           LOCAL                   ADDRESS         
           =====                   =======         
           PhySend::?relay         000030DD 
    -------------------------------------------------------------------------
<BANKED_CODE,BANK_RELAYS..> 1 (was BANK_RELAYS)
  Relative segment, address: CODE 000030E3 - 000030E8 (0x6 bytes), align: 0
  Segment part 206.           Intra module refs:   sMacInit
           LOCAL                   ADDRESS         
           =====                   =======         
           RfRxIndicateIsr::?relay
                                   000030E3 
    -------------------------------------------------------------------------
<BANKED_CODE,XDATA_ROM_C_FLASH> 1 (was XDATA_ROM_C_FLASH)
  Relative segment, address: CODE 00008359 - 0000835C (0x4 bytes), align: 0
  Segment part 207.           Intra module refs:   __Constant_3880c
    -------------------------------------------------------------------------
<BANKED_CODE,XDATA_ROM_C_FLASH> 1 (was XDATA_ROM_C_FLASH)
  Relative segment, address: CODE 0000835D - 00008360 (0x4 bytes), align: 0
  Segment part 208.           Intra module refs:   __Constant_3880d
    -------------------------------------------------------------------------
<BANKED_CODE,XDATA_ROM_C_FLASH> 1 (was XDATA_ROM_C_FLASH)
  Relative segment, address: CODE 00008361 - 00008364 (0x4 bytes), align: 0
  Segment part 209.           Intra module refs:   __Constant_ffffffff
    -------------------------------------------------------------------------
<BANKED_CODE,XDATA_ROM_C_FLASH> 1 (was XDATA_ROM_C_FLASH)
  Relative segment, address: CODE 00008365 - 00008368 (0x4 bytes), align: 0
  Segment part 211.           Intra module refs:   __Constant_ce4
    -------------------------------------------------------------------------
<BANKED_CODE,XDATA_ROM_C_FLASH> 1 (was XDATA_ROM_C_FLASH)
  Relative segment, address: CODE 00008369 - 0000836C (0x4 bytes), align: 0
  Segment part 213.           Intra module refs:   __Constant_ff0000
    -------------------------------------------------------------------------
<BANKED_CODE,XDATA_ROM_C_FLASH> 1 (was XDATA_ROM_C_FLASH)
  Relative segment, address: CODE 0000836D - 00008370 (0x4 bytes), align: 0
  Segment part 214.           Intra module refs:   __Constant_ff00
    -------------------------------------------------------------------------
<BANKED_CODE,XDATA_ROM_C_FLASH> 1 (was XDATA_ROM_C_FLASH)
  Relative segment, address: CODE 00008371 - 00008374 (0x4 bytes), align: 0
  Segment part 215.           Intra module refs:   __Constant_294

    *************************************************************************

  FILE NAME : D:\ZbNode\Proj\ZbNode\ide\Release\Obj\sNwk.r51
  PROGRAM MODULE, NAME : sNwk

  SEGMENTS IN THE MODULE
  ======================
XDATA_Z
  Relative segment, address: XDATA 00000499 - 00000499 (0x1 bytes), align: 0
  Segment part 6.             Intra module refs:   sNwkInit
           LOCAL                   ADDRESS         
           =====                   =======         
           MySeqNum                00000499 
    -------------------------------------------------------------------------
XDATA_Z
  Relative segment, address: XDATA 0000049A - 00000539 (0xa0 bytes), align: 0
  Segment part 7.             Intra module refs:   sNwkInit
                                                   sNwkTask
           LOCAL                   ADDRESS         
           =====                   =======         
           sNwkSeqList             0000049A 
    -------------------------------------------------------------------------
XDATA_Z
  Relative segment, address: XDATA 0000053A - 0000053A (0x1 bytes), align: 0
  Segment part 8.             Intra module refs:   sNwkInit
                                                   sNwkTask
           LOCAL                   ADDRESS         
           =====                   =======         
           sNwkSeqIndex            0000053A 
    -------------------------------------------------------------------------
XDATA_Z
  Relative segment, address: XDATA 0000053B - 0000053C (0x2 bytes), align: 0
  Segment part 9.             Intra module refs:   ?Subroutine5
                                                   sNwkInit
                                                   sNwkTask
           LOCAL                   ADDRESS         
           =====                   =======         
           sNwkMsgSendLinkHead     0000053B 
    -------------------------------------------------------------------------
XDATA_Z
  Relative segment, address: XDATA 0000053D - 0000053D (0x1 bytes), align: 0
  Segment part 10.            Intra module refs:   ?Subroutine3
                                                   sMacDataSendCallBack
                                                   sNwkInit
                                                   sNwkTask
           LOCAL                   ADDRESS         
           =====                   =======         
           sNwkSendLinkCnt         0000053D 
    -------------------------------------------------------------------------
XDATA_Z
  Relative segment, address: XDATA 0000053E - 0000053F (0x2 bytes), align: 0
  Segment part 11.            Intra module refs:   sMacDataIndication
                                                   sNwkInit
                                                   sNwkTask
           LOCAL                   ADDRESS         
           =====                   =======         
           sNwkMsgRecvLinkHead     0000053E 
    -------------------------------------------------------------------------
XDATA_Z
  Relative segment, address: XDATA 00000540 - 00000541 (0x2 bytes), align: 0
  Segment part 12.            Intra module refs:   sNwkInit
                                                   sNwkRecv
                                                   sNwkTask
           LOCAL                   ADDRESS         
           =====                   =======         
           sNwkAppDataLinkHead     00000540 
    -------------------------------------------------------------------------
XDATA_Z
  Relative segment, address: XDATA 00000542 - 00000543 (0x2 bytes), align: 0
  Segment part 13.            Intra module refs:   sNwkInit
                                                   sNwkRecv
                                                   sNwkTask
           LOCAL                   ADDRESS         
           =====                   =======         
           sNwkDataIndication      00000542 
    -------------------------------------------------------------------------
XDATA_Z
  Relative segment, address: XDATA 00000544 - 00000643 (0x100 bytes), align: 0
  Segment part 14.            Intra module refs:   ?Subroutine22
                                                   sNwkAddRoute
                                                   sNwkDelateRoute
                                                   sNwkGetNextHop
                                                   sNwkInit
           LOCAL                   ADDRESS         
           =====                   =======         
           sNwkRouteTab            00000544 
    -------------------------------------------------------------------------
<BANKED_CODE,BANK_RELAYS..> 1 (was BANKED_CODE)
  Relative segment, address: CODE 00006992 - 00006A08 (0x77 bytes), align: 0
  Segment part 17.            Intra module refs:   sNwkInit::?relay
           ENTRY                   ADDRESS         REF BY
           =====                   =======         ======
           sNwkInit                00006992 
               calls direct
               XSTACK = 00000000 ( 0000000C )
    -------------------------------------------------------------------------
<BANKED_CODE,BANK_RELAYS..> 1 (was BANKED_CODE)
  Relative segment, address: CODE 00006A09 - 00006B33 (0x12b bytes), align: 0
  Segment part 21.            Intra module refs:   sNwkRecv::?relay
           ENTRY                   ADDRESS         REF BY
           =====                   =======         ======
           sNwkRecv                00006A09 
               calls direct
               XSTACK = 00000004 ( 00000010 )
               ISTACK = 00000000 ( 00000001 )
    -------------------------------------------------------------------------
<BANKED_CODE,BANK_RELAYS..> 1 (was BANKED_CODE)
  Relative segment, address: CODE 00006B34 - 00006B3E (0xb bytes), align: 0
  Segment part 23.            Intra module refs:   sNwkRecv
           LOCAL                   ADDRESS         
           =====                   =======         
           ?Subroutine8            00006B34 
    -------------------------------------------------------------------------
<BANKED_CODE,BANK_RELAYS..> 1 (was BANKED_CODE)
  Relative segment, address: CODE 00006B3F - 00006B41 (0x3 bytes), align: 0
  Segment part 24.            Intra module refs:   sNwkTask
           LOCAL                   ADDRESS         
           =====                   =======         
           ?Subroutine0            00006B3F 
    -------------------------------------------------------------------------
<BANKED_CODE,BANK_RELAYS..> 1 (was BANKED_CODE)
  Relative segment, address: CODE 00006B42 - 00006B46 (0x5 bytes), align: 0
  Segment part 25.            Intra module refs:   ?Subroutine0
                                                   sNwkAddRoute
                                                   sNwkDelateRoute
                                                   sNwkGetNextHop
                                                   sNwkRecv
    -------------------------------------------------------------------------
<BANKED_CODE,BANK_RELAYS..> 1 (was BANKED_CODE)
  Relative segment, address: CODE 00006B47 - 00006FC8 (0x482 bytes), align: 0
  Segment part 26.            Intra module refs:   sNwkTask::?relay
           ENTRY                   ADDRESS         REF BY
           =====                   =======         ======
           sNwkTask                00006B47 
               calls direct
               XSTACK = 00000000 ( 00000019 )
               ISTACK = 00000000 ( 00000004 )
    -------------------------------------------------------------------------
<BANKED_CODE,BANK_RELAYS..> 1 (was BANKED_CODE)
  Relative segment, address: CODE 00006FC9 - 00006FD3 (0xb bytes), align: 0
  Segment part 28.            Intra module refs:   sNwkTask
           LOCAL                   ADDRESS         
           =====                   =======         
           ?Subroutine20           00006FC9 
    -------------------------------------------------------------------------
<BANKED_CODE,BANK_RELAYS..> 1 (was BANKED_CODE)
  Relative segment, address: CODE 00006FD4 - 00006FD9 (0x6 bytes), align: 0
  Segment part 29.            Intra module refs:   sNwkTask
           LOCAL                   ADDRESS         
           =====                   =======         
           ?Subroutine19           00006FD4 
    -------------------------------------------------------------------------
<BANKED_CODE,BANK_RELAYS..> 1 (was BANKED_CODE)
  Relative segment, address: CODE 00006FDA - 00006FDE (0x5 bytes), align: 0
  Segment part 30.            Intra module refs:   ?Subroutine19
                                                   sMacDataSendCallBack
                                                   sNwkTask
    -------------------------------------------------------------------------
<BANKED_CODE,BANK_RELAYS..> 1 (was BANKED_CODE)
  Relative segment, address: CODE 00006FDF - 00006FE8 (0xa bytes), align: 0
  Segment part 31.            Intra module refs:   sNwkTask
           LOCAL                   ADDRESS         
           =====                   =======         
           ?Subroutine18           00006FDF 
    -------------------------------------------------------------------------
<BANKED_CODE,BANK_RELAYS..> 1 (was BANKED_CODE)
  Relative segment, address: CODE 00006FE9 - 00006FF4 (0xc bytes), align: 0
  Segment part 32.            Intra module refs:   sNwkTask
           LOCAL                   ADDRESS         
           =====                   =======         
           ?Subroutine17           00006FE9 
    -------------------------------------------------------------------------
<BANKED_CODE,BANK_RELAYS..> 1 (was BANKED_CODE)
  Relative segment, address: CODE 00006FF5 - 00006FFC (0x8 bytes), align: 0
  Segment part 33.            Intra module refs:   sMacDataSendCallBack
                                                   sNwkRecv
                                                   sNwkTask
           LOCAL                   ADDRESS         
           =====                   =======         
           ?Subroutine16           00006FF5 
    -------------------------------------------------------------------------
<BANKED_CODE,BANK_RELAYS..> 1 (was BANKED_CODE)
  Relative segment, address: CODE 00006FFD - 00007002 (0x6 bytes), align: 0
  Segment part 34.            Intra module refs:   sNwkTask
           LOCAL                   ADDRESS         
           =====                   =======         
           ?Subroutine15           00006FFD 
    -------------------------------------------------------------------------
<BANKED_CODE,BANK_RELAYS..> 1 (was BANKED_CODE)
  Relative segment, address: CODE 00007003 - 00007006 (0x4 bytes), align: 0
  Segment part 35.            Intra module refs:   ?Subroutine15
                                                   sNwkTask
    -------------------------------------------------------------------------
<BANKED_CODE,BANK_RELAYS..> 1 (was BANKED_CODE)
  Relative segment, address: CODE 00007007 - 00007010 (0xa bytes), align: 0
  Segment part 36.            Intra module refs:   sNwkTask
           LOCAL                   ADDRESS         
           =====                   =======         
           ?Subroutine14           00007007 
    -------------------------------------------------------------------------
<BANKED_CODE,BANK_RELAYS..> 1 (was BANKED_CODE)
  Relative segment, address: CODE 00007011 - 0000701F (0xf bytes), align: 0
  Segment part 37.            Intra module refs:   sNwkRecv
                                                   sNwkTask
           LOCAL                   ADDRESS         
           =====                   =======         
           ?Subroutine13           00007011 
    -------------------------------------------------------------------------
<BANKED_CODE,BANK_RELAYS..> 1 (was BANKED_CODE)
  Relative segment, address: CODE 00007020 - 00007025 (0x6 bytes), align: 0
  Segment part 38.            Intra module refs:   ?Subroutine13
                                                   ?Subroutine14
                                                   ?Subroutine5
                                                   Segment part 35
                                                   Segment part 52
           LOCAL                   ADDRESS         
           =====                   =======         
           ?Subroutine26           00007020 
    -------------------------------------------------------------------------
<BANKED_CODE,BANK_RELAYS..> 1 (was BANKED_CODE)
  Relative segment, address: CODE 00007026 - 0000702F (0xa bytes), align: 0
  Segment part 39.            Intra module refs:   sNwkTask
           LOCAL                   ADDRESS         
           =====                   =======         
           ?Subroutine12           00007026 
    -------------------------------------------------------------------------
<BANKED_CODE,BANK_RELAYS..> 1 (was BANKED_CODE)
  Relative segment, address: CODE 00007030 - 00007033 (0x4 bytes), align: 0
  Segment part 40.            Intra module refs:   sNwkTask
           LOCAL                   ADDRESS         
           =====                   =======         
           ?Subroutine10           00007030 
    -------------------------------------------------------------------------
<BANKED_CODE,BANK_RELAYS..> 1 (was BANKED_CODE)
  Relative segment, address: CODE 00007034 - 0000703C (0x9 bytes), align: 0
  Segment part 41.            Intra module refs:   ?Subroutine10
                                                   ?Subroutine4
           LOCAL                   ADDRESS         
           =====                   =======         
           ?Subroutine25           00007034 
    -------------------------------------------------------------------------
<BANKED_CODE,BANK_RELAYS..> 1 (was BANKED_CODE)
  Relative segment, address: CODE 0000703D - 00007042 (0x6 bytes), align: 0
  Segment part 42.            Intra module refs:   sNwkRecv
                                                   sNwkTask
           LOCAL                   ADDRESS         
           =====                   =======         
           ?Subroutine9            0000703D 
    -------------------------------------------------------------------------
<BANKED_CODE,BANK_RELAYS..> 1 (was BANKED_CODE)
  Relative segment, address: CODE 00007043 - 0000704D (0xb bytes), align: 0
  Segment part 43.            Intra module refs:   sNwkTask
           LOCAL                   ADDRESS         
           =====                   =======         
           ?Subroutine4            00007043 
    -------------------------------------------------------------------------
<BANKED_CODE,BANK_RELAYS..> 1 (was BANKED_CODE)
  Relative segment, address: CODE 0000704E - 0000705F (0x12 bytes), align: 0
  Segment part 44.            Intra module refs:   sNwkTask
           LOCAL                   ADDRESS         
           =====                   =======         
           ?Subroutine3            0000704E 
    -------------------------------------------------------------------------
<BANKED_CODE,BANK_RELAYS..> 1 (was BANKED_CODE)
  Relative segment, address: CODE 00007060 - 00007071 (0x12 bytes), align: 0
  Segment part 45.            Intra module refs:   sNwkTask
           LOCAL                   ADDRESS         
           =====                   =======         
           ?Subroutine2            00007060 
    -------------------------------------------------------------------------
<BANKED_CODE,BANK_RELAYS..> 1 (was BANKED_CODE)
  Relative segment, address: CODE 00007072 - 00007078 (0x7 bytes), align: 0
  Segment part 48.            Intra module refs:   sMacDataIndication
           LOCAL                   ADDRESS         
           =====                   =======         
           ?Subroutine1            00007072 
    -------------------------------------------------------------------------
<BANKED_CODE,BANK_RELAYS..> 1 (was BANKED_CODE)
  Relative segment, address: CODE 00007079 - 000070B5 (0x3d bytes), align: 0
  Segment part 49.            Intra module refs:   sMacDataIndication::?relay
           LOCAL                   ADDRESS         
           =====                   =======         
           sMacDataIndication      00007079 
               calls direct, is indirectly called
               ISTACK = 00000000 ( 00000002 )
    -------------------------------------------------------------------------
<BANKED_CODE,BANK_RELAYS..> 1 (was BANKED_CODE)
  Relative segment, address: CODE 000070B6 - 000070BA (0x5 bytes), align: 0
  Segment part 51.            Intra module refs:   sMacDataSendCallBack
                                                   sNwkTask
           LOCAL                   ADDRESS         
           =====                   =======         
           ?Subroutine11           000070B6 
    -------------------------------------------------------------------------
<BANKED_CODE,BANK_RELAYS..> 1 (was BANKED_CODE)
  Relative segment, address: CODE 000070BB - 000070C0 (0x6 bytes), align: 0
  Segment part 52.            Intra module refs:   ?Subroutine11
                                                   sMacDataIndication
                                                   sNwkRecv
                                                   sNwkTask
    -------------------------------------------------------------------------
<BANKED_CODE,BANK_RELAYS..> 1 (was BANKED_CODE)
  Relative segment, address: CODE 000070C1 - 0000712A (0x6a bytes), align: 0
  Segment part 53.            Intra module refs:   sNwkGetNextHop::?relay
           ENTRY                   ADDRESS         REF BY
           =====                   =======         ======
           sNwkGetNextHop          000070C1 
               XSTACK = 00000017 ( 00000010 )
    -------------------------------------------------------------------------
<BANKED_CODE,BANK_RELAYS..> 1 (was BANKED_CODE)
  Relative segment, address: CODE 0000712B - 000071EB (0xc1 bytes), align: 0
  Segment part 55.            Intra module refs:   sNwkAddRoute::?relay
           ENTRY                   ADDRESS         REF BY
           =====                   =======         ======
           sNwkAddRoute            0000712B 
               XSTACK = 00000004 ( 00000010 )
    -------------------------------------------------------------------------
<BANKED_CODE,BANK_RELAYS..> 1 (was BANKED_CODE)
  Relative segment, address: CODE 000071EC - 000071F8 (0xd bytes), align: 0
  Segment part 57.            Intra module refs:   sNwkAddRoute
                                                   sNwkGetNextHop
           LOCAL                   ADDRESS         
           =====                   =======         
           ?Subroutine22           000071EC 
    -------------------------------------------------------------------------
<BANKED_CODE,BANK_RELAYS..> 1 (was BANKED_CODE)
  Relative segment, address: CODE 000071F9 - 00007207 (0xf bytes), align: 0
  Segment part 58.            Intra module refs:   sNwkAddRoute
                                                   sNwkGetNextHop
           LOCAL                   ADDRESS         
           =====                   =======         
           ?Subroutine21           000071F9 
    -------------------------------------------------------------------------
<BANKED_CODE,BANK_RELAYS..> 1 (was BANKED_CODE)
  Relative segment, address: CODE 00007208 - 00007214 (0xd bytes), align: 0
  Segment part 59.            Intra module refs:   ?Subroutine21
                                                   sNwkAddRoute
           LOCAL                   ADDRESS         
           =====                   =======         
           ?Subroutine27           00007208 
    -------------------------------------------------------------------------
<BANKED_CODE,BANK_RELAYS..> 1 (was BANKED_CODE)
  Relative segment, address: CODE 00007215 - 00007267 (0x53 bytes), align: 0
  Segment part 60.            Intra module refs:   sNwkDelateRoute::?relay
           ENTRY                   ADDRESS         REF BY
           =====                   =======         ======
           sNwkDelateRoute         00007215 
               XSTACK = 00000000 ( 00000010 )
    -------------------------------------------------------------------------
<BANKED_CODE,BANK_RELAYS..> 1 (was BANKED_CODE)
  Relative segment, address: CODE 00007268 - 000072EA (0x83 bytes), align: 0
  Segment part 62.            Intra module refs:   sMacDataSendCallBack::?relay
           LOCAL                   ADDRESS         
           =====                   =======         
           sMacDataSendCallBack    00007268 
               calls direct, is indirectly called
               XSTACK = 00000000 ( 0000000B )
    -------------------------------------------------------------------------
<BANKED_CODE,BANK_RELAYS..> 1 (was BANKED_CODE)
  Relative segment, address: CODE 000072EB - 000072F4 (0xa bytes), align: 0
  Segment part 64.            Intra module refs:   sMacDataSendCallBack
                                                   sNwkTask
           LOCAL                   ADDRESS         
           =====                   =======         
           ?Subroutine23           000072EB 
    -------------------------------------------------------------------------
<BANKED_CODE,BANK_RELAYS..> 1 (was BANKED_CODE)
  Relative segment, address: CODE 000072F5 - 00007300 (0xc bytes), align: 0
  Segment part 65.            Intra module refs:   sMacDataSendCallBack
                                                   sNwkTask
           LOCAL                   ADDRESS         
           =====                   =======         
           ?Subroutine7            000072F5 
    -------------------------------------------------------------------------
<BANKED_CODE,BANK_RELAYS..> 1 (was BANKED_CODE)
  Relative segment, address: CODE 00007301 - 00007306 (0x6 bytes), align: 0
  Segment part 66.            Intra module refs:   sMacDataSendCallBack
           LOCAL                   ADDRESS         
           =====                   =======         
           ?Subroutine6            00007301 
    -------------------------------------------------------------------------
<BANKED_CODE,BANK_RELAYS..> 1 (was BANKED_CODE)
  Relative segment, address: CODE 00007307 - 0000730B (0x5 bytes), align: 0
  Segment part 67.            Intra module refs:   ?Subroutine2
                                                   ?Subroutine6
           LOCAL                   ADDRESS         
           =====                   =======         
           ?Subroutine24           00007307 
    -------------------------------------------------------------------------
<BANKED_CODE,BANK_RELAYS..> 1 (was BANKED_CODE)
  Relative segment, address: CODE 0000730C - 00007316 (0xb bytes), align: 0
  Segment part 68.            Intra module refs:   ?Subroutine24
                                                   sNwkTask
           LOCAL                   ADDRESS         
           =====                   =======         
           ?Subroutine28           0000730C 
    -------------------------------------------------------------------------
<BANKED_CODE,BANK_RELAYS..> 1 (was BANKED_CODE)
  Relative segment, address: CODE 00007317 - 00007323 (0xd bytes), align: 0
  Segment part 69.            Intra module refs:   sMacDataSendCallBack
           LOCAL                   ADDRESS         
           =====                   =======         
           ?Subroutine5            00007317 
    -------------------------------------------------------------------------
<XDATA_ROM_C> 1 (was XDATA_ROM_C)
  Relative segment, address: CONST 00008375 - 00008378 (0x4 bytes), align: 0
  Segment part 16.            Intra module refs:   SysTimerTask (sysTimer)
                                                   sNwkTask
           ENTRY                   ADDRESS         REF BY
           =====                   =======         ======
           __Constant_21           00008375 
    -------------------------------------------------------------------------
<BANKED_CODE,BANK_RELAYS..> 1 (was BANK_RELAYS)
  Relative segment, address: CODE 000030E9 - 000030EE (0x6 bytes), align: 0
  Segment part 18.
           ENTRY                   ADDRESS         REF BY
           =====                   =======         ======
           sNwkInit::?relay        000030E9        main (startup)
    -------------------------------------------------------------------------
<BANKED_CODE,BANK_RELAYS..> 1 (was BANK_RELAYS)
  Relative segment, address: CODE 000031B5 - 000031BA (0x6 bytes), align: 0
  Segment part 22.
           ENTRY                   ADDRESS         REF BY
           =====                   =======         ======
           sNwkRecv::?relay        000031B5        AppTask (Application)
    -------------------------------------------------------------------------
<BANKED_CODE,BANK_RELAYS..> 1 (was BANK_RELAYS)
  Relative segment, address: CODE 000030F5 - 000030FA (0x6 bytes), align: 0
  Segment part 27.
           ENTRY                   ADDRESS         REF BY
           =====                   =======         ======
           sNwkTask::?relay        000030F5        tasksArr (sysTask)
    -------------------------------------------------------------------------
<BANKED_CODE,BANK_RELAYS..> 1 (was BANK_RELAYS)
  Relative segment, address: CODE 000030FB - 00003100 (0x6 bytes), align: 0
  Segment part 50.            Intra module refs:   sNwkInit
           LOCAL                   ADDRESS         
           =====                   =======         
           sMacDataIndication::?relay
                                   000030FB 
    -------------------------------------------------------------------------
<BANKED_CODE,BANK_RELAYS..> 1 (was BANK_RELAYS)
  Relative segment, address: CODE 00003101 - 00003106 (0x6 bytes), align: 0
  Segment part 54.            Intra module refs:   sNwkTask
           ENTRY                   ADDRESS         REF BY
           =====                   =======         ======
           sNwkGetNextHop::?relay
                                   00003101        sMacTask (sMac)
    -------------------------------------------------------------------------
<BANKED_CODE,BANK_RELAYS..> 1 (was BANK_RELAYS)
  Relative segment, address: CODE 00003107 - 0000310C (0x6 bytes), align: 0
  Segment part 56.
           ENTRY                   ADDRESS         REF BY
           =====                   =======         ======
           sNwkAddRoute::?relay    00003107        sMacTask (sMac)
    -------------------------------------------------------------------------
<BANKED_CODE,BANK_RELAYS..> 1 (was BANK_RELAYS)
  Relative segment, address: CODE 0000310D - 00003112 (0x6 bytes), align: 0
  Segment part 61.
           ENTRY                   ADDRESS         REF BY
           =====                   =======         ======
           sNwkDelateRoute::?relay
                                   0000310D        sMacTask (sMac)
    -------------------------------------------------------------------------
<BANKED_CODE,BANK_RELAYS..> 1 (was BANK_RELAYS)
  Relative segment, address: CODE 00003113 - 00003118 (0x6 bytes), align: 0
  Segment part 63.            Intra module refs:   ?Subroutine2
           LOCAL                   ADDRESS         
           =====                   =======         
           sMacDataSendCallBack::?relay
                                   00003113 
    -------------------------------------------------------------------------
<BANKED_CODE,XDATA_ROM_C_FLASH> 1 (was XDATA_ROM_C_FLASH)
  Relative segment, address: CODE 00008375 - 00008378 (0x4 bytes), align: 0
  Segment part 71.            Intra module refs:   __Constant_21

    *************************************************************************

  FILE NAME : D:\ZbNode\Proj\ZbNode\ide\Release\Obj\startup.r51
  PROGRAM MODULE, NAME : startup

  SEGMENTS IN THE MODULE
  ======================
XDATA_Z
  Relative segment, address: XDATA 00000644 - 000015E3 (0xfa0 bytes), align: 0
  Segment part 6.             Intra module refs:   main
           LOCAL                   ADDRESS         
           =====                   =======         
           Heap                    00000644 
    -------------------------------------------------------------------------
<BANKED_CODE,XDATA_ROM_C_FLASH> 1 (was BANKED_CODE)
  Relative segment, address: CODE 0000A57D - 0000A5A5 (0x29 bytes), align: 0
  Segment part 7.
           ENTRY                   ADDRESS         REF BY
           =====                   =======         ======
           main                    0000A57D        ?call_main (?cmain)
               calls direct

    *************************************************************************

  FILE NAME : D:\ZbNode\Proj\ZbNode\ide\Release\Obj\sysTask.r51
  PROGRAM MODULE, NAME : sysTask

  SEGMENTS IN THE MODULE
  ======================
<BANKED_CODE,BANK_RELAYS..> 1 (was CODE_C)
  Relative segment, address: CODE 00003306 - 00003311 (0xc bytes), align: 0
  Segment part 6.
           ENTRY                   ADDRESS         REF BY
           =====                   =======         ======
           tasksArr                00003306        BosScheduler (kernel)

    *************************************************************************

  FILE NAME : D:\ZbNode\Proj\ZbNode\ide\Release\Obj\sysTimer.r51
  PROGRAM MODULE, NAME : sysTimer

  SEGMENTS IN THE MODULE
  ======================
XDATA_Z
  Relative segment, address: XDATA 000015E4 - 000015E4 (0x1 bytes), align: 0
  Segment part 7.             Intra module refs:   ?Subroutine2
                                                   SysTimerStart
           LOCAL                   ADDRESS         
           =====                   =======         
           numOfActiveTimers       000015E4 
    -------------------------------------------------------------------------
XDATA_Z
  Relative segment, address: XDATA 000015E5 - 000016C0 (0xdc bytes), align: 0
  Segment part 8.             Intra module refs:   ?Subroutine6
                                                   SysTimerAlloc
                                                   SysTimerInit
                                                   SysTimerTask
                                                   _SysTimerFree
           LOCAL                   ADDRESS         
           =====                   =======         
           SysTimerTable           000015E5 
    -------------------------------------------------------------------------
XDATA_Z
  Relative segment, address: XDATA 000016C1 - 000016C1 (0x1 bytes), align: 0
  Segment part 9.             Intra module refs:   SysTimerStart
                                                   SysTimerTask
                                                   Time1InterruptHandler
           ENTRY                   ADDRESS         REF BY
           =====                   =======         ======
           SysTimerTaskIsPending   000016C1        BosScheduler (kernel)
    -------------------------------------------------------------------------
<BANKED_CODE,XDATA_ROM_C_FLASH> 1 (was BANKED_CODE)
  Relative segment, address: CODE 00008BF3 - 00008C32 (0x40 bytes), align: 0
  Segment part 12.            Intra module refs:   SysTimerInit::?relay
           ENTRY                   ADDRESS         REF BY
           =====                   =======         ======
           SysTimerInit            00008BF3 
               calls direct
               XSTACK = 00000000 ( 00000009 )
    -------------------------------------------------------------------------
<BANKED_CODE,XDATA_ROM_C_FLASH> 1 (was BANKED_CODE)
  Relative segment, address: CODE 00008C33 - 00008C37 (0x5 bytes), align: 0
  Segment part 14.            Intra module refs:   SysTimerInit
                                                   SysTimerStop
                                                   _SysTimerFree
           LOCAL                   ADDRESS         
           =====                   =======         
           ?Subroutine0            00008C33 
    -------------------------------------------------------------------------
<BANKED_CODE,XDATA_ROM_C_FLASH> 1 (was BANKED_CODE)
  Relative segment, address: CODE 00008C38 - 00008C70 (0x39 bytes), align: 0
  Segment part 15.            Intra module refs:   SysTimerAlloc::?relay
           ENTRY                   ADDRESS         REF BY
           =====                   =======         ======
           SysTimerAlloc           00008C38 
               ISTACK = 00000000 ( 00000002 )
    -------------------------------------------------------------------------
<BANKED_CODE,XDATA_ROM_C_FLASH> 1 (was BANKED_CODE)
  Relative segment, address: CODE 00008C71 - 00008C77 (0x7 bytes), align: 0
  Segment part 17.            Intra module refs:   SysTimerAlloc
                                                   SysTimerDisable
                                                   Time1InterruptHandler
           LOCAL                   ADDRESS         
           =====                   =======         
           ?Subroutine1            00008C71 
    -------------------------------------------------------------------------
<BANKED_CODE,XDATA_ROM_C_FLASH> 1 (was BANKED_CODE)
  Relative segment, address: CODE 00008C78 - 00008C9C (0x25 bytes), align: 0
  Segment part 18.            Intra module refs:   _SysTimerFree::?relay
           ENTRY                   ADDRESS         REF BY
           =====                   =======         ======
           _SysTimerFree           00008C78 
               calls direct
               XSTACK = 00000000 ( 00000009 )
    -------------------------------------------------------------------------
<BANKED_CODE,XDATA_ROM_C_FLASH> 1 (was BANKED_CODE)
  Relative segment, address: CODE 00008C9D - 00008CA8 (0xc bytes), align: 0
  Segment part 20.            Intra module refs:   Time1InterruptHandler::?relay
           LOCAL                   ADDRESS         
           =====                   =======         
           Time1InterruptHandler   00008C9D 
               is indirectly called
               ISTACK = 00000000 ( 00000002 )
    -------------------------------------------------------------------------
<BANKED_CODE,XDATA_ROM_C_FLASH> 1 (was BANKED_CODE)
  Relative segment, address: CODE 00008CA9 - 00008D47 (0x9f bytes), align: 0
  Segment part 22.            Intra module refs:   SysTimerStart::?relay
           ENTRY                   ADDRESS         REF BY
           =====                   =======         ======
           SysTimerStart           00008CA9 
               XSTACK = 00000004 ( 0000000C )
               ISTACK = 00000000 ( 00000001 )
    -------------------------------------------------------------------------
<BANKED_CODE,XDATA_ROM_C_FLASH> 1 (was BANKED_CODE)
  Relative segment, address: CODE 00008D48 - 00008D74 (0x2d bytes), align: 0
  Segment part 24.            Intra module refs:   SysTimerStop::?relay
           ENTRY                   ADDRESS         REF BY
           =====                   =======         ======
           SysTimerStop            00008D48 
               XSTACK = 00000009 ( 00000009 )
               ISTACK = 00000000 ( 00000001 )
    -------------------------------------------------------------------------
<BANKED_CODE,XDATA_ROM_C_FLASH> 1 (was BANKED_CODE)
  Relative segment, address: CODE 00008D75 - 00008D78 (0x4 bytes), align: 0
  Segment part 26.            Intra module refs:   SysTimerInit
                                                   SysTimerStop
           LOCAL                   ADDRESS         
           =====                   =======         
           ?Subroutine5            00008D75 
    -------------------------------------------------------------------------
<BANKED_CODE,XDATA_ROM_C_FLASH> 1 (was BANKED_CODE)
  Relative segment, address: CODE 00008D79 - 00008D84 (0xc bytes), align: 0
  Segment part 27.            Intra module refs:   ?Subroutine3
                                                   ?Subroutine5
           LOCAL                   ADDRESS         
           =====                   =======         
           ?Subroutine7            00008D79 
    -------------------------------------------------------------------------
<BANKED_CODE,XDATA_ROM_C_FLASH> 1 (was BANKED_CODE)
  Relative segment, address: CODE 00008D85 - 00008D94 (0x10 bytes), align: 0
  Segment part 28.            Intra module refs:   SysTimerInit
                                                   SysTimerStop
           LOCAL                   ADDRESS         
           =====                   =======         
           ?Subroutine3            00008D85 
    -------------------------------------------------------------------------
<BANKED_CODE,XDATA_ROM_C_FLASH> 1 (was BANKED_CODE)
  Relative segment, address: CODE 00008D95 - 00008DA5 (0x11 bytes), align: 0
  Segment part 29.            Intra module refs:   SysTimerDisable
                                                   SysTimerStart
                                                   SysTimerStop
           LOCAL                   ADDRESS         
           =====                   =======         
           ?Subroutine2            00008D95 
    -------------------------------------------------------------------------
<BANKED_CODE,XDATA_ROM_C_FLASH> 1 (was BANKED_CODE)
  Relative segment, address: CODE 00008DA6 - 00008DBE (0x19 bytes), align: 0
  Segment part 30.            Intra module refs:   SysTimerDisable::?relay
           LOCAL                   ADDRESS         
           =====                   =======         
           SysTimerDisable         00008DA6 
               XSTACK = 00000017 ( 00000000 )
               ISTACK = 00000000 ( 00000003 )
    -------------------------------------------------------------------------
<BANKED_CODE,XDATA_ROM_C_FLASH> 1 (was BANKED_CODE)
  Relative segment, address: CODE 00008DBF - 00008DCB (0xd bytes), align: 0
  Segment part 32.            Intra module refs:   SysTimerDisable
                                                   SysTimerStop
           LOCAL                   ADDRESS         
           =====                   =======         
           ?Subroutine4            00008DBF 
    -------------------------------------------------------------------------
<BANKED_CODE,XDATA_ROM_C_FLASH> 1 (was BANKED_CODE)
  Relative segment, address: CODE 00008DCC - 00008DE7 (0x1c bytes), align: 0
  Segment part 33.            Intra module refs:   ?Subroutine4
                                                   SysTimerStart
           LOCAL                   ADDRESS         
           =====                   =======         
           ?Subroutine6            00008DCC 
    -------------------------------------------------------------------------
<BANKED_CODE,XDATA_ROM_C_FLASH> 1 (was BANKED_CODE)
  Relative segment, address: CODE 00008DE8 - 00008FDA (0x1f3 bytes), align: 0
  Segment part 34.            Intra module refs:   SysTimerTask::?relay
           ENTRY                   ADDRESS         REF BY
           =====                   =======         ======
           SysTimerTask            00008DE8 
               calls direct
               XSTACK = 00000000 ( 00000017 )
               ISTACK = 00000000 ( 00000001 )
    -------------------------------------------------------------------------
XDATA_Z
  Relative segment, address: XDATA 000016C2 - 000016C5 (0x4 bytes), align: 0
  Segment part 10.            Intra module refs:   SysTimerTask
           LOCAL                   ADDRESS         
           =====                   =======         
           SysTimerTask::previousTick
                                   000016C2 
    -------------------------------------------------------------------------
<BANKED_CODE,BANK_RELAYS..> 1 (was BANK_RELAYS)
  Relative segment, address: CODE 00003119 - 0000311E (0x6 bytes), align: 0
  Segment part 13.
           ENTRY                   ADDRESS         REF BY
           =====                   =======         ======
           SysTimerInit::?relay    00003119        main (startup)
    -------------------------------------------------------------------------
<BANKED_CODE,BANK_RELAYS..> 1 (was BANK_RELAYS)
  Relative segment, address: CODE 0000311F - 00003124 (0x6 bytes), align: 0
  Segment part 16.
           ENTRY                   ADDRESS         REF BY
           =====                   =======         ======
           SysTimerAlloc::?relay   0000311F        ApplicationInit (Application)
                                                   sMacInit (sMac)
                                                   sMacTask (sMac)
    -------------------------------------------------------------------------
<BANKED_CODE,BANK_RELAYS..> 1 (was BANK_RELAYS)
  Relative segment, address: CODE 00003125 - 0000312A (0x6 bytes), align: 0
  Segment part 19.
           ENTRY                   ADDRESS         REF BY
           =====                   =======         ======
           _SysTimerFree::?relay   00003125        sMacTask (sMac)
    -------------------------------------------------------------------------
<BANKED_CODE,BANK_RELAYS..> 1 (was BANK_RELAYS)
  Relative segment, address: CODE 0000312B - 00003130 (0x6 bytes), align: 0
  Segment part 21.            Intra module refs:   SysTimerInit
           LOCAL                   ADDRESS         
           =====                   =======         
           Time1InterruptHandler::?relay
                                   0000312B 
    -------------------------------------------------------------------------
<BANKED_CODE,BANK_RELAYS..> 1 (was BANK_RELAYS)
  Relative segment, address: CODE 00003131 - 00003136 (0x6 bytes), align: 0
  Segment part 23.
           ENTRY                   ADDRESS         REF BY
           =====                   =======         ======
           SysTimerStart::?relay   00003131        AppTask (Application)
                                                   ApplicationInit (Application)
                                                   sMacTask (sMac)
    -------------------------------------------------------------------------
<BANKED_CODE,BANK_RELAYS..> 1 (was BANK_RELAYS)
  Relative segment, address: CODE 00003137 - 0000313C (0x6 bytes), align: 0
  Segment part 25.            Intra module refs:   _SysTimerFree
           ENTRY                   ADDRESS         REF BY
           =====                   =======         ======
           SysTimerStop::?relay    00003137        sMacTask (sMac)
    -------------------------------------------------------------------------
<BANKED_CODE,BANK_RELAYS..> 1 (was BANK_RELAYS)
  Relative segment, address: CODE 0000313D - 00003142 (0x6 bytes), align: 0
  Segment part 31.            Intra module refs:   SysTimerTask
           LOCAL                   ADDRESS         
           =====                   =======         
           SysTimerDisable::?relay
                                   0000313D 
    -------------------------------------------------------------------------
<BANKED_CODE,BANK_RELAYS..> 1 (was BANK_RELAYS)
  Relative segment, address: CODE 000032AB - 000032B0 (0x6 bytes), align: 0
  Segment part 35.
           ENTRY                   ADDRESS         REF BY
           =====                   =======         ======
           SysTimerTask::?relay    000032AB        BosScheduler (kernel)
                                                   tasksArr (sysTask)

    *************************************************************************

  FILE NAME : D:\ZbNode\Proj\ZbNode\ide\Release\Obj\upgrade.r51
  PROGRAM MODULE, NAME : upgrade

  SEGMENTS IN THE MODULE
  ======================
<BANKED_CODE,BANK_RELAYS..> 1 (was BANKED_CODE)
  Relative segment, address: CODE 00007FF5 - 00007FF7 (0x3 bytes), align: 0
  Segment part 17.            Intra module refs:   UpgradeTask::?relay
           ENTRY                   ADDRESS         REF BY
           =====                   =======         ======
           UpgradeTask             00007FF5 
    -------------------------------------------------------------------------
<BANKED_CODE,BANK_RELAYS..> 1 (was BANK_RELAYS)
  Relative segment, address: CODE 00003149 - 0000314E (0x6 bytes), align: 0
  Segment part 18.
           ENTRY                   ADDRESS         REF BY
           =====                   =======         ======
           UpgradeTask::?relay     00003149        tasksArr (sysTask)

    *************************************************************************

  FILE NAME : D:\ZbNode\Proj\ZbNode\ide\Release\Obj\ush_cmd.r51
    *************************************************************************

  FILE NAME : D:\ZbNode\Proj\ZbNode\ide\Release\Obj\ushell.r51
    *************************************************************************

  FILE NAME : C:\Program Files (x86)\IAR Systems\Embedded Workbench 6.5\8051\LIB\CLIB\cl-pli-blxd-1e16x01.r51
  LIBRARY MODULE, NAME : ?cexit

  SEGMENTS IN THE MODULE
  ======================
<BANKED_CODE,BANK_RELAYS..> 1 (was CSTART)
  Relative segment, address: CODE 000032E7 - 000032EB (0x5 bytes), align: 0
  Segment part 0.
           ENTRY                   ADDRESS         REF BY
           =====                   =======         ======
           exit                    000032E7        ?call_main (?cmain)
           ?C_EXIT                 000032E7 
           ?ROM_MONITOR_NOPS       000032E7 

    -------------------------------------------------------------------------
  LIBRARY MODULE, NAME : ?cmain

  SEGMENTS IN THE MODULE
  ======================
<BANKED_CODE,BANK_RELAYS..> 1 (was CSTART)
  Relative segment, address: CODE 00002B23, align: 0
  Segment part 5.
           ENTRY                   ADDRESS         REF BY
           =====                   =======         ======
           ?cmain                  00002B23        __call_main (CSTARTUP)
               calls direct
    -------------------------------------------------------------------------
<BANKED_CODE,BANK_RELAYS..> 1 (was CSTART)
  Relative segment, address: CODE 00002B23 - 00002B2B (0x9 bytes), align: 0
  Segment part 6.
           ENTRY                   ADDRESS         REF BY
           =====                   =======         ======
           __low_level_init_call   00002B23        __low_level_init (hal_startup)
    -------------------------------------------------------------------------
<BANKED_CODE,BANK_RELAYS..> 1 (was CSTART)
  Relative segment, address: CODE 00002B2C - 00002B3B (0x10 bytes), align: 0
  Segment part 16.
           ENTRY                   ADDRESS         REF BY
           =====                   =======         ======
           __INIT_XDATA_Z          00002B2C        AckIsPending (sMac)
                                                   AckSeqNum (sMac)
                                                   AckTimerId (sMac)
                                                   BC95InitAT::init_step (BC95)
                                                   BC95PollingAT::polling_step (BC95)
                                                   BC95RxIndicationSearch::prx (BC95)
                                                   BC95RxIndicationSearch::qird_cnt (BC95)
                                                   BC95RxIndicationSearch::rxLen (BC95)
                                                   BC95RxIndicationSearch::rx_ascii_len (BC95)
                                                   BosTaskTabRead (kernel)
                                                   BosTaskTabWrite (kernel)
                                                   BosTaskTable (kernel)
                                                   Heap (startup)
                                                   HeapBase (BosMem)
                                                   HeapSize (BosMem)
                                                   LampPower (Application)
                                                   MsgSendTimerId (sMac)
                                                   MySeq (Application)
                                                   MySeqNum (sMac)
                                                   MySeqNum (sNwk)
                                                   RecvLinkCnt (sMac)
                                                   SysTimerTable (sysTimer)
                                                   SysTimerTask::previousTick (sysTimer)
                                                   SysTimerTaskIsPending (sysTimer)
                                                   TaskNum (kernel)
                                                   TickGet::preTick (hal_time)
                                                   Uart1Info (hal_uart)
                                                   atdelay (BC95)
                                                   atm (netMngr)
                                                   heartBeatTimerId (Application)
                                                   iccid (netMngr)
                                                   imei (netMngr)
                                                   module_status (netMngr)
                                                   netDataIndication (netMngr)
                                                   netInfo (sMac)
                                                   numOfActiveTimers (sysTimer)
                                                   pSTCompIntHandler (hal_time)
                                                   pfISR (hal_rf)
                                                   recv_list_cnt (netMngr)
                                                   recv_list_head (netMngr)
                                                   retry (BC95)
                                                   rssi (netMngr)
                                                   rxBuf (Application)
                                                   sMacDataIndication (sMac)
                                                   sMacMsgRecvLinkHead (sMac)
                                                   sMacMsgSendLinkHead (sMac)
                                                   sMacNetAutoCB (sMac)
                                                   sMacSearchHandle (sMac)
                                                   sMacSonHandle (sMac)
                                                   sNwkAppDataLinkHead (sNwk)
                                                   sNwkDataIndication (sNwk)
                                                   sNwkMsgRecvLinkHead (sNwk)
                                                   sNwkMsgSendLinkHead (sNwk)
                                                   sNwkRouteTab (sNwk)
                                                   sNwkSendLinkCnt (sNwk)
                                                   sNwkSeqIndex (sNwk)
                                                   sNwkSeqList (sNwk)
                                                   send_list_cnt (netMngr)
                                                   send_list_head (netMngr)
                                                   tickExt (hal_time)
    -------------------------------------------------------------------------
<BANKED_CODE,BANK_RELAYS..> 1 (was CSTART)
  Relative segment, address: CODE 00002B3C - 00002B61 (0x26 bytes), align: 0
  Segment part 33.
           ENTRY                   ADDRESS         REF BY
           =====                   =======         ======
           __INIT_XDATA_I          00002B3C        Segment part 10 (?largewr)
                                                   Segment part 12 (?largewr)
                                                   Segment part 6 (?largewr)
                                                   Segment part 8 (?largewr)
                                                   __Constant_2edbe700 (?largewr)
                                                   __Constant_3f800000 (?largewr)
                                                   __Constant_40a00000 (?largewr)
                                                   __Constant_41200000 (?largewr)
                                                   __Constant_501502f9 (?largewr)
                                                   __Constant_51ba43b7 (?largewr)
                                                   __Constant_7f800000 (?largewr)
                                                   rssiOffset (hal_rf)
    -------------------------------------------------------------------------
<BANKED_CODE,BANK_RELAYS..> 1 (was CSTART)
  Relative segment, address: CODE 00002B62, align: 0
  Segment part 37.            Intra module refs:   __low_level_init_call
    -------------------------------------------------------------------------
<BANKED_CODE,BANK_RELAYS..> 1 (was CSTART)
  Relative segment, address: CODE 00002B62 - 00002B77 (0x16 bytes), align: 0
  Segment part 38.            Intra module refs:   ?cmain
           ENTRY                   ADDRESS         REF BY
           =====                   =======         ======
           ?call_main              00002B62 

    -------------------------------------------------------------------------
  LIBRARY MODULE, NAME : ?BANKED_CODE_SUPPORT

  SEGMENTS IN THE MODULE
  ======================
<BANKED_CODE,BANK_RELAYS..> 1 (was CSTART)
  Relative segment, address: CODE 00002D73 - 00002D90 (0x1e bytes), align: 0
  Segment part 0.
           ENTRY                   ADDRESS         REF BY
           =====                   =======         ======
           ?BCALL_FF               00002D73        ?call_main (?cmain)
           ?BRET_FF                00002D79        ?BANKED_LEAVE_XDATA (?BANKED_LEAVE_XDATA)
                                                   ?Subroutine0 (hal_uart)
                                                   ?Subroutine0 (netMngr)
                                                   ?Subroutine1 (sNwk)
                                                   ?Subroutine1 (sysTimer)
                                                   BosInit (kernel)
                                                   EnableInterrupts (hal_mcu)
                                                   HeapInit (BosMem)
                                                   McuPWMInit (hal_pwm)
                                                   McuSleepTimerInit (hal_time)
                                                   Segment part 135 (sMac)
                                                   Segment part 26 (Application)
                                                   Segment part 56 (hal_rf)
                                                   SleepTimeCompCallbackSet (hal_time)
                                                   UpgradeTask (upgrade)
                                                   clockSetMainSrc (hal_clock)
                                                   consoleInit (board)
                                                   halBoardInit (board)
                                                   halMcuInit (hal_mcu)
                                                   halRfGetRandomByte (hal_rf)
                                                   halRfGetRandomWord (hal_rf)
                                                   halRfReceiveOn (hal_rf)
                                                   halSpiInit (gpioSpi)
                                                   halSpiTranceive (gpioSpi)
                                                   main (startup)
                                                   memset (?memset)
                                                   netUartRxIndicat (netMngr)
                                                   put_c_in_string (?sprintf)
                                                   sMacDeviceTypeGet (sMac)
                                                   strlen (?strlen)
           ?BDISPATCH_FF           00002D7C        AckTimeOutCallBack::?relay (sMac)
                                                   AppTask::?relay (Application)
                                                   ApplicationInit::?relay (Application)
                                                   BC95InitAT::?relay (BC95)
                                                   BC95IoTHeaderAdd::?relay (BC95)
                                                   BC95PollingAT::?relay (BC95)
                                                   BC95RxIndicationSearch::?relay (BC95)
                                                   BosEventSend::?relay (kernel)
                                                   BosInit::?relay (kernel)
                                                   BosMalloc::?relay (BosMem)
                                                   BosMemSet::?relay (BosMem)
                                                   BosScheduler::?relay (kernel)
                                                   EnableInterrupts::?relay (hal_mcu)
                                                   HalFlashErase::?relay (hal_flash)
                                                   HalFlashRead::?relay (hal_flash)
                                                   HalFlashWrite::?relay (hal_flash)
                                                   HeapInit::?relay (BosMem)
                                                   McuPWMInit::?relay (hal_pwm)
                                                   McuPwmCfg::?relay (hal_pwm)
                                                   McuSleepTimerInit::?relay (hal_time)
                                                   MsgSendTimeOutCallBack::?relay (sMac)
                                                   PhyDataIndication::?relay (sMac)
                                                   PhySend::?relay (sMac)
                                                   RfRxIndicateIsr::?relay (sMac)
                                                   SleepTimeCompCallbackSet::?relay (hal_time)
                                                   SleepTimeCompSet::?relay (hal_time)
                                                   SysTimerAlloc::?relay (sysTimer)
                                                   SysTimerDisable::?relay (sysTimer)
                                                   SysTimerInit::?relay (sysTimer)
                                                   SysTimerStart::?relay (sysTimer)
                                                   SysTimerStop::?relay (sysTimer)
                                                   SysTimerTask::?relay (sysTimer)
                                                   TickGet::?relay (hal_time)
                                                   Time1InterruptHandler::?relay (sysTimer)
                                                   UpgradeTask::?relay (upgrade)
                                                   _BosFree::?relay (BosMem)
                                                   _SysTimerFree::?relay (sysTimer)
                                                   _large_write::?relay (?largewr)
                                                   atCmdStart::?relay (netMngr)
                                                   atCmdStop::?relay (netMngr)
                                                   atcmd_resp_search::?relay (netMngr)
                                                   att7053buInit::?relay (att7053bu)
                                                   att7053buPowerGet::?relay (att7053bu)
                                                   att7053buRegRead::?relay (att7053bu)
                                                   att7053buRegWrite::?relay (att7053bu)
                                                   attributeGet::?relay (attribute)
                                                   clockSetMainSrc::?relay (hal_clock)
                                                   consoleInit::?relay (board)
                                                   crc32::?relay (crc)
                                                   float_conversion::?relay (?largewr)
                                                   halBoardInit::?relay (board)
                                                   halMcuInit::?relay (hal_mcu)
                                                   halRfDisableRxInterrupt::?relay (hal_rf)
                                                   halRfEnableRxInterrupt::?relay (hal_rf)
                                                   halRfGetRandomByte::?relay (hal_rf)
                                                   halRfGetRandomWord::?relay (hal_rf)
                                                   halRfGetRssiOffset::?relay (hal_rf)
                                                   halRfInit::?relay (hal_rf)
                                                   halRfReadRxBuf::?relay (hal_rf)
                                                   halRfReceiveOn::?relay (hal_rf)
                                                   halRfRxInterruptConfig::?relay (hal_rf)
                                                   halRfSetChannel::?relay (hal_rf)
                                                   halRfSetTxPower::?relay (hal_rf)
                                                   halRfTransmit::?relay (hal_rf)
                                                   halRfWaitTransceiverReady::?relay (hal_rf)
                                                   halRfWriteTxBuf::?relay (hal_rf)
                                                   halSpiBufRead::?relay (gpioSpi)
                                                   halSpiBufWrite::?relay (gpioSpi)
                                                   halSpiInit::?relay (gpioSpi)
                                                   halSpiTranceive::?relay (gpioSpi)
                                                   halUartInit::?relay (hal_uart)
                                                   halUartRecv::?relay (hal_uart)
                                                   halUartRxCbSet::?relay (hal_uart)
                                                   halUartSend::?relay (hal_uart)
                                                   heartBeatTimeOutCallBack::?relay (Application)
                                                   list_add::?relay (list)
                                                   list_add_tail::?relay (list)
                                                   list_del::?relay (list)
                                                   memcmp::?relay (?memcmp)
                                                   memcpy::?relay (?memcpy)
                                                   memset::?relay (?memset)
                                                   netDataIndication::?relay (Application)
                                                   netDataIndicationCallBackSet::?relay (netMngr)
                                                   netMngrInit::?relay (netMngr)
                                                   netMngrTask::?relay (netMngr)
                                                   netRecv::?relay (netMngr)
                                                   netSend::?relay (netMngr)
                                                   netUartRxIndicat::?relay (netMngr)
                                                   nvramBlockCheck::?relay (nvram)
                                                   nvramInit::?relay (nvram)
                                                   put_c_in_string::?relay (?sprintf)
                                                   sMacAddressGet::?relay (sMac)
                                                   sMacCmdNetSearchReq::?relay (sMac)
                                                   sMacCmdNetSearchResp::?relay (sMac)
                                                   sMacCmdPingPong::?relay (sMac)
                                                   sMacDataIndication::?relay (sNwk)
                                                   sMacDataIndicationCallBackSet::?relay (sMac)
                                                   sMacDataSendCallBack::?relay (sNwk)
                                                   sMacDeviceTypeGet::?relay (sMac)
                                                   sMacInit::?relay (sMac)
                                                   sMacJoinReqTimeOutCallBack::?relay (sMac)
                                                   sMacNetSearchTimeOutCallBack::?relay (sMac)
                                                   sMacPingTimeOutCallBack::?relay (sMac)
                                                   sMacSend::?relay (sMac)
                                                   sMacTask::?relay (sMac)
                                                   sNwkAddRoute::?relay (sNwk)
                                                   sNwkDelateRoute::?relay (sNwk)
                                                   sNwkGetNextHop::?relay (sNwk)
                                                   sNwkInit::?relay (sNwk)
                                                   sNwkRecv::?relay (sNwk)
                                                   sNwkTask::?relay (sNwk)
                                                   sprintf::?relay (?sprintf)
                                                   strcpy::?relay (?strcpy)
                                                   strlen::?relay (?strlen)
                                                   sum8::?relay (crc)

    -------------------------------------------------------------------------
  LIBRARY MODULE, NAME : ?L_EQ

  SEGMENTS IN THE MODULE
  ======================
<BANKED_CODE,BANK_RELAYS..> 1 (was RCODE)
  Relative segment, address: CODE 00002E3D - 00002E51 (0x15 bytes), align: 0
  Segment part 1.
           ENTRY                   ADDRESS         REF BY
           =====                   =======         ======
           ?L_EQ                   00002E3D        nvramBlockCheck (nvram)
                                                   nvramInit (nvram)
                                                   sMacTask (sMac)
                                                   sNwkAddRoute (sNwk)
                                                   sNwkTask (sNwk)

    -------------------------------------------------------------------------
  LIBRARY MODULE, NAME : ?L_EQ_X

  SEGMENTS IN THE MODULE
  ======================
<BANKED_CODE,BANK_RELAYS..> 1 (was RCODE)
  Relative segment, address: CODE 00002E52 - 00002E66 (0x15 bytes), align: 0
  Segment part 1.
           ENTRY                   ADDRESS         REF BY
           =====                   =======         ======
           ?L_EQ_X                 00002E52        att7053buInit (att7053bu)
                                                   sMacSend (sMac)
                                                   sMacTask (sMac)
                                                   sNwkAddRoute (sNwk)
                                                   sNwkDelateRoute (sNwk)
                                                   sNwkGetNextHop (sNwk)
                                                   sNwkTask (sNwk)

    -------------------------------------------------------------------------
  LIBRARY MODULE, NAME : ?SL_GE_X

  SEGMENTS IN THE MODULE
  ======================
<BANKED_CODE,BANK_RELAYS..> 1 (was RCODE)
  Relative segment, address: CODE 00002CEE - 00002D13 (0x26 bytes), align: 0
  Segment part 1.
           ENTRY                   ADDRESS         REF BY
           =====                   =======         ======
           ?SL_GE_X                00002CEE        _large_write (?largewr)

    -------------------------------------------------------------------------
  LIBRARY MODULE, NAME : ?UL_GT

  SEGMENTS IN THE MODULE
  ======================
<BANKED_CODE,BANK_RELAYS..> 1 (was RCODE)
  Relative segment, address: CODE 00002F5D - 00002F6C (0x10 bytes), align: 0
  Segment part 1.
           ENTRY                   ADDRESS         REF BY
           =====                   =======         ======
           ?UL_GT                  00002F5D        PhySend (sMac)
                                                   sMacTask (sMac)

    -------------------------------------------------------------------------
  LIBRARY MODULE, NAME : ?UL_GT_X

  SEGMENTS IN THE MODULE
  ======================
<BANKED_CODE,BANK_RELAYS..> 1 (was RCODE)
  Relative segment, address: CODE 00002F3D - 00002F4C (0x10 bytes), align: 0
  Segment part 1.
           ENTRY                   ADDRESS         REF BY
           =====                   =======         ======
           ?UL_GT_X                00002F3D        SysTimerTask (sysTimer)

    -------------------------------------------------------------------------
  LIBRARY MODULE, NAME : ?UL_GE_X

  SEGMENTS IN THE MODULE
  ======================
<BANKED_CODE,BANK_RELAYS..> 1 (was RCODE)
  Relative segment, address: CODE 00002D35 - 00002D53 (0x1f bytes), align: 0
  Segment part 1.
           ENTRY                   ADDRESS         REF BY
           =====                   =======         ======
           ?UL_GE_X                00002D35        BC95InitAT (BC95)
                                                   BC95PollingAT (BC95)
                                                   SleepTimeCompSet (hal_time)
                                                   SysTimerTask (sysTimer)
                                                   TickGet (hal_time)
                                                   atCmdStart (netMngr)
                                                   att7053buPowerGet (att7053bu)
                                                   sMacTask (sMac)

    -------------------------------------------------------------------------
  LIBRARY MODULE, NAME : ?L_TO_FLT

  SEGMENTS IN THE MODULE
  ======================
<BANKED_CODE,BANK_RELAYS..> 1 (was RCODE)
  Relative segment, address: CODE 000028B9 - 000028BB (0x3 bytes), align: 0
  Segment part 0.
           ENTRY                   ADDRESS         REF BY
           =====                   =======         ======
           ?L_TO_FLT               000028B9        att7053buPowerGet (att7053bu)
                                                   float_conversion (?largewr)
    -------------------------------------------------------------------------
<BANKED_CODE,BANK_RELAYS..> 1 (was RCODE)
  Relative segment, address: CODE 000028BC - 000028D0 (0x15 bytes), align: 0
  Segment part 1.             Intra module refs:   ?L_TO_FLT
           ENTRY                   ADDRESS         REF BY
           =====                   =======         ======
           ?L_TO_FLT_REW           000028BC 
    -------------------------------------------------------------------------
<BANKED_CODE,BANK_RELAYS..> 1 (was RCODE)
  Relative segment, address: CODE 000028D1 - 000028D3 (0x3 bytes), align: 0
  Segment part 2.             Intra module refs:   ?L_TO_FLT_REW
           ENTRY                   ADDRESS         REF BY
           =====                   =======         ======
           ?UL_TO_FLT_REW          000028D1 
    -------------------------------------------------------------------------
<BANKED_CODE,BANK_RELAYS..> 1 (was RCODE)
  Relative segment, address: CODE 000028D4 - 00002930 (0x5d bytes), align: 0
  Segment part 3.             Intra module refs:   ?L_TO_FLT_REW
                                                   ?UL_TO_FLT_REW
           ENTRY                   ADDRESS         REF BY
           =====                   =======         ======
           ?UL_TO_FLT              000028D4        att7053buPowerGet (att7053bu)

    -------------------------------------------------------------------------
  LIBRARY MODULE, NAME : ?FLT_TO_L

  SEGMENTS IN THE MODULE
  ======================
<BANKED_CODE,BANK_RELAYS..> 1 (was RCODE)
  Relative segment, address: CODE 00002689 - 00002693 (0xb bytes), align: 0
  Segment part 2.
           ENTRY                   ADDRESS         REF BY
           =====                   =======         ======
           ?FLT_TO_UL              00002689        att7053buPowerGet (att7053bu)
    -------------------------------------------------------------------------
<BANKED_CODE,BANK_RELAYS..> 1 (was RCODE)
  Relative segment, address: CODE 00002694 - 000026C7 (0x34 bytes), align: 0
  Segment part 5.
           ENTRY                   ADDRESS         REF BY
           =====                   =======         ======
           ?FLT_TO_L               00002694        float_conversion (?largewr)
    -------------------------------------------------------------------------
<BANKED_CODE,BANK_RELAYS..> 1 (was RCODE)
  Relative segment, address: CODE 000026C8 - 000026D3 (0xc bytes), align: 0
  Segment part 6.             Intra module refs:   ?FLT_TO_L
                                                   ?FLT_TO_UL
    -------------------------------------------------------------------------
<BANKED_CODE,BANK_RELAYS..> 1 (was RCODE)
  Relative segment, address: CODE 000026D4 - 00002722 (0x4f bytes), align: 0
  Segment part 7.             Intra module refs:   ?FLT_TO_L
                                                   ?FLT_TO_UL

    -------------------------------------------------------------------------
  LIBRARY MODULE, NAME : ?FLT_TEST_ZERO

  SEGMENTS IN THE MODULE
  ======================
<BANKED_CODE,BANK_RELAYS..> 1 (was RCODE)
  Relative segment, address: CODE 0000302C - 00003034 (0x9 bytes), align: 0
  Segment part 1.
           ENTRY                   ADDRESS         REF BY
           =====                   =======         ======
           ?FLT_TEST_ZERO_REW      0000302C        ?FLT_ADD (?FLT_ADD)
                                                   ?FLT_DIV (?FLT_DIV)
                                                   ?FLT_EQ (?FLT_EQ)
                                                   ?FLT_GE (?FLT_GE)
                                                   ?FLT_LT (?FLT_LT)
                                                   ?FLT_MUL (?FLT_MUL)

    -------------------------------------------------------------------------
  LIBRARY MODULE, NAME : ?FLT_TEST_ZERO_R1

  SEGMENTS IN THE MODULE
  ======================
<BANKED_CODE,BANK_RELAYS..> 1 (was RCODE)
  Relative segment, address: CODE 00003023 - 0000302B (0x9 bytes), align: 0
  Segment part 1.
           ENTRY                   ADDRESS         REF BY
           =====                   =======         ======
           ?FLT_TEST_ZERO_R1_REW   00003023        ?FLT_ADD (?FLT_ADD)
                                                   ?FLT_DIV (?FLT_DIV)
                                                   ?FLT_EQ (?FLT_EQ)
                                                   ?FLT_GE (?FLT_GE)
                                                   ?FLT_LT (?FLT_LT)
                                                   ?FLT_MUL (?FLT_MUL)

    -------------------------------------------------------------------------
  LIBRARY MODULE, NAME : ?FLT_TEST_INF

  SEGMENTS IN THE MODULE
  ======================
<BANKED_CODE,BANK_RELAYS..> 1 (was RCODE)
  Relative segment, address: CODE 00002E7B - 00002E7D (0x3 bytes), align: 0
  Segment part 0.
           ENTRY                   ADDRESS         REF BY
           =====                   =======         ======
           ?FLT_TEST_INF_REW       00002E7B        ?FLT_ADD (?FLT_ADD)
                                                   ?FLT_MUL (?FLT_MUL)
    -------------------------------------------------------------------------
<BANKED_CODE,BANK_RELAYS..> 1 (was RCODE)
  Relative segment, address: CODE 00002E7E - 00002E8E (0x11 bytes), align: 0
  Segment part 1.             Intra module refs:   ?FLT_TEST_INF_REW
           ENTRY                   ADDRESS         REF BY
           =====                   =======         ======
           ?FLT_TEST_INF           00002E7E        ?FLT_DIV (?FLT_DIV)

    -------------------------------------------------------------------------
  LIBRARY MODULE, NAME : ?FLT_TEST_INF_R1

  SEGMENTS IN THE MODULE
  ======================
<BANKED_CODE,BANK_RELAYS..> 1 (was RCODE)
  Relative segment, address: CODE 00002EA3 - 00002EA5 (0x3 bytes), align: 0
  Segment part 0.
           ENTRY                   ADDRESS         REF BY
           =====                   =======         ======
           ?FLT_TEST_INF_R1_REW    00002EA3        ?FLT_ADD (?FLT_ADD)
                                                   ?FLT_MUL (?FLT_MUL)
    -------------------------------------------------------------------------
<BANKED_CODE,BANK_RELAYS..> 1 (was RCODE)
  Relative segment, address: CODE 00002EA6 - 00002EB6 (0x11 bytes), align: 0
  Segment part 1.             Intra module refs:   ?FLT_TEST_INF_R1_REW
           ENTRY                   ADDRESS         REF BY
           =====                   =======         ======
           ?FLT_TEST_INF_R1        00002EA6        ?FLT_DIV (?FLT_DIV)

    -------------------------------------------------------------------------
  LIBRARY MODULE, NAME : ?FLT_TEST_NAN

  SEGMENTS IN THE MODULE
  ======================
<BANKED_CODE,BANK_RELAYS..> 1 (was RCODE)
  Relative segment, address: CODE 00002F7D - 00002F8B (0xf bytes), align: 0
  Segment part 1.
           ENTRY                   ADDRESS         REF BY
           =====                   =======         ======
           ?FLT_TEST_NAN           00002F7D        ?FLT_ADD (?FLT_ADD)
                                                   ?FLT_DIV (?FLT_DIV)
                                                   ?FLT_EQ (?FLT_EQ)
                                                   ?FLT_GE (?FLT_GE)
                                                   ?FLT_LT (?FLT_LT)
                                                   ?FLT_MUL (?FLT_MUL)
                                                   ?FLT_SUB (?FLT_ADD)

    -------------------------------------------------------------------------
  LIBRARY MODULE, NAME : ?FLT_TEST_NAN_R1

  SEGMENTS IN THE MODULE
  ======================
<BANKED_CODE,BANK_RELAYS..> 1 (was RCODE)
  Relative segment, address: CODE 00002FAA - 00002FB8 (0xf bytes), align: 0
  Segment part 1.
           ENTRY                   ADDRESS         REF BY
           =====                   =======         ======
           ?FLT_TEST_NAN_R1        00002FAA        ?FLT_ADD (?FLT_ADD)
                                                   ?FLT_DIV (?FLT_DIV)
                                                   ?FLT_EQ (?FLT_EQ)
                                                   ?FLT_GE (?FLT_GE)
                                                   ?FLT_LT (?FLT_LT)
                                                   ?FLT_MUL (?FLT_MUL)
                                                   ?FLT_SUB (?FLT_ADD)

    -------------------------------------------------------------------------
  LIBRARY MODULE, NAME : ?FLT_EQ

  SEGMENTS IN THE MODULE
  ======================
<BANKED_CODE,BANK_RELAYS..> 1 (was RCODE)
  Relative segment, address: CODE 00002CC2 - 00002CED (0x2c bytes), align: 0
  Segment part 1.
           ENTRY                   ADDRESS         REF BY
           =====                   =======         ======
           ?FLT_EQ                 00002CC2        float_conversion (?largewr)

    -------------------------------------------------------------------------
  LIBRARY MODULE, NAME : ?FLT_GE

  SEGMENTS IN THE MODULE
  ======================
<BANKED_CODE,BANK_RELAYS..> 1 (was RCODE)
  Relative segment, address: CODE 00002B78 - 00002BC6 (0x4f bytes), align: 0
  Segment part 1.
           ENTRY                   ADDRESS         REF BY
           =====                   =======         ======
           ?FLT_GE                 00002B78        float_conversion (?largewr)

    -------------------------------------------------------------------------
  LIBRARY MODULE, NAME : ?FLT_LT

  SEGMENTS IN THE MODULE
  ======================
<BANKED_CODE,BANK_RELAYS..> 1 (was RCODE)
  Relative segment, address: CODE 00002BC7 - 00002C12 (0x4c bytes), align: 0
  Segment part 1.
           ENTRY                   ADDRESS         REF BY
           =====                   =======         ======
           ?FLT_LT                 00002BC7        _large_write (?largewr)
                                                   att7053buPowerGet (att7053bu)
                                                   float_conversion (?largewr)

    -------------------------------------------------------------------------
  LIBRARY MODULE, NAME : ?FLT_MUL

  SEGMENTS IN THE MODULE
  ======================
<BANKED_CODE,BANK_RELAYS..> 1 (was RCODE)
  Relative segment, address: CODE 00002509 - 00002688 (0x180 bytes), align: 0
  Segment part 1.
           ENTRY                   ADDRESS         REF BY
           =====                   =======         ======
           ?FLT_MUL                00002509        att7053buPowerGet (att7053bu)
                                                   float_conversion (?largewr)

    -------------------------------------------------------------------------
  LIBRARY MODULE, NAME : ?FLT_ADD

  SEGMENTS IN THE MODULE
  ======================
<BANKED_CODE,BANK_RELAYS..> 1 (was RCODE)
  Relative segment, address: CODE 000020E4 - 00002108 (0x25 bytes), align: 0
  Segment part 1.
           ENTRY                   ADDRESS         REF BY
           =====                   =======         ======
           ?FLT_SUB                000020E4        float_conversion (?largewr)
    -------------------------------------------------------------------------
<BANKED_CODE,BANK_RELAYS..> 1 (was RCODE)
  Relative segment, address: CODE 00002109 - 00002322 (0x21a bytes), align: 0
  Segment part 3.             Intra module refs:   ?FLT_SUB
           ENTRY                   ADDRESS         REF BY
           =====                   =======         ======
           ?FLT_ADD                00002109        att7053buPowerGet (att7053bu)

    -------------------------------------------------------------------------
  LIBRARY MODULE, NAME : ?FLT_DIV

  SEGMENTS IN THE MODULE
  ======================
<BANKED_CODE,BANK_RELAYS..> 1 (was RCODE)
  Relative segment, address: CODE 00002323 - 00002508 (0x1e6 bytes), align: 0
  Segment part 1.
           ENTRY                   ADDRESS         REF BY
           =====                   =======         ======
           ?FLT_DIV                00002323        float_conversion (?largewr)

    -------------------------------------------------------------------------
  LIBRARY MODULE, NAME : ?L_MUL

  SEGMENTS IN THE MODULE
  ======================
<BANKED_CODE,BANK_RELAYS..> 1 (was RCODE)
  Relative segment, address: CODE 000027BD - 000027BF (0x3 bytes), align: 0
  Segment part 0.
           ENTRY                   ADDRESS         REF BY
           =====                   =======         ======
           ?L_MUL                  000027BD        AppTask (Application)
                                                   McuPwmCfg (hal_pwm)
                                                   sNwkTask (sNwk)
    -------------------------------------------------------------------------
<BANKED_CODE,BANK_RELAYS..> 1 (was RCODE)
  Relative segment, address: CODE 000027C0 - 0000283C (0x7d bytes), align: 0
  Segment part 1.             Intra module refs:   ?L_MUL
           ENTRY                   ADDRESS         REF BY
           =====                   =======         ======
           ?L_MUL_REW              000027C0 

    -------------------------------------------------------------------------
  LIBRARY MODULE, NAME : ?UL_DIV_MOD

  SEGMENTS IN THE MODULE
  ======================
<BANKED_CODE,BANK_RELAYS..> 1 (was RCODE)
  Relative segment, address: CODE 00002931 - 0000299F (0x6f bytes), align: 0
  Segment part 1.
           ENTRY                   ADDRESS         REF BY
           =====                   =======         ======
           ?UL_DIV_MOD             00002931        McuPwmCfg (hal_pwm)
                                                   _large_write (?largewr)

    -------------------------------------------------------------------------
  LIBRARY MODULE, NAME : ?L_NEG

  SEGMENTS IN THE MODULE
  ======================
<BANKED_CODE,BANK_RELAYS..> 1 (was RCODE)
  Relative segment, address: CODE 00002EB7 - 00002EB9 (0x3 bytes), align: 0
  Segment part 0.
           ENTRY                   ADDRESS         REF BY
           =====                   =======         ======
           ?L_NEG_REW              00002EB7        ?L_TO_FLT_REW (?L_TO_FLT)
    -------------------------------------------------------------------------
<BANKED_CODE,BANK_RELAYS..> 1 (was RCODE)
  Relative segment, address: CODE 00002EBA - 00002ECA (0x11 bytes), align: 0
  Segment part 1.             Intra module refs:   ?L_NEG_REW
           ENTRY                   ADDRESS         REF BY
           =====                   =======         ======
           ?L_NEG                  00002EBA        _large_write (?largewr)

    -------------------------------------------------------------------------
  LIBRARY MODULE, NAME : ?UL_SHR

  SEGMENTS IN THE MODULE
  ======================
<BANKED_CODE,BANK_RELAYS..> 1 (was RCODE)
  Relative segment, address: CODE 00002DC7 - 00002DCB (0x5 bytes), align: 0
  Segment part 1.             Intra module refs:   Segment part 2
           ENTRY                   ADDRESS         REF BY
           =====                   =======         ======
           ?UL_SHR                 00002DC7        BC95PollingAT (BC95)
                                                   HalFlashErase (hal_flash)
                                                   HalFlashRead (hal_flash)
                                                   HalFlashWrite (hal_flash)
                                                   sMacCmdNetSearchResp (sMac)
                                                   sMacTask (sMac)
    -------------------------------------------------------------------------
<BANKED_CODE,BANK_RELAYS..> 1 (was RCODE)
  Relative segment, address: CODE 00002DCC - 00002DDF (0x14 bytes), align: 0
  Segment part 2.             Intra module refs:   ?UL_SHR

    -------------------------------------------------------------------------
  LIBRARY MODULE, NAME : ?L_SHL

  SEGMENTS IN THE MODULE
  ======================
<BANKED_CODE,BANK_RELAYS..> 1 (was RCODE)
  Relative segment, address: CODE 00002D54 - 00002D59 (0x6 bytes), align: 0
  Segment part 0.
           ENTRY                   ADDRESS         REF BY
           =====                   =======         ======
           ?L_SHL                  00002D54        PhyDataIndication (sMac)
                                                   PhySend (sMac)
                                                   SleepTimeCompSet (hal_time)
                                                   TickGet (hal_time)
                                                   att7053buRegRead (att7053bu)
                                                   sMacCmdNetSearchResp (sMac)
                                                   sMacTask (sMac)
    -------------------------------------------------------------------------
<BANKED_CODE,BANK_RELAYS..> 1 (was RCODE)
  Relative segment, address: CODE 00002D5A - 00002D5E (0x5 bytes), align: 0
  Segment part 1.             Intra module refs:   Segment part 2
           ENTRY                   ADDRESS         REF BY
           =====                   =======         ======
           ?L_SHL_REW              00002D5A 
    -------------------------------------------------------------------------
<BANKED_CODE,BANK_RELAYS..> 1 (was RCODE)
  Relative segment, address: CODE 00002D5F - 00002D72 (0x14 bytes), align: 0
  Segment part 2.             Intra module refs:   ?L_SHL
                                                   ?L_SHL_REW

    -------------------------------------------------------------------------
  LIBRARY MODULE, NAME : ?L_ADD

  SEGMENTS IN THE MODULE
  ======================
<BANKED_CODE,BANK_RELAYS..> 1 (was RCODE)
  Relative segment, address: CODE 00002EDE - 00002EF0 (0x13 bytes), align: 0
  Segment part 1.
           ENTRY                   ADDRESS         REF BY
           =====                   =======         ======
           ?L_ADD                  00002EDE        att7053buRegRead (att7053bu)
                                                   sNwkTask (sNwk)

    -------------------------------------------------------------------------
  LIBRARY MODULE, NAME : ?L_ADD_X

  SEGMENTS IN THE MODULE
  ======================
<BANKED_CODE,BANK_RELAYS..> 1 (was RCODE)
  Relative segment, address: CODE 00002ECB - 00002EDD (0x13 bytes), align: 0
  Segment part 1.
           ENTRY                   ADDRESS         REF BY
           =====                   =======         ======
           ?L_ADD_X                00002ECB        BC95InitAT (BC95)
                                                   BC95PollingAT (BC95)
                                                   McuPwmCfg (hal_pwm)
                                                   SleepTimeCompSet (hal_time)
                                                   TickGet (hal_time)
                                                   atCmdStart (netMngr)
                                                   att7053buPowerGet (att7053bu)
                                                   nvramBlockCheck (nvram)
                                                   nvramInit (nvram)

    -------------------------------------------------------------------------
  LIBRARY MODULE, NAME : ?L_ADD_TO_X

  SEGMENTS IN THE MODULE
  ======================
<BANKED_CODE,BANK_RELAYS..> 1 (was RCODE)
  Relative segment, address: CODE 00002F2A - 00002F3C (0x13 bytes), align: 0
  Segment part 1.
           ENTRY                   ADDRESS         REF BY
           =====                   =======         ======
           ?L_ADD_TO_X             00002F2A        SleepTimeCompSet (hal_time)
                                                   TickGet (hal_time)

    -------------------------------------------------------------------------
  LIBRARY MODULE, NAME : ?L_SUB

  SEGMENTS IN THE MODULE
  ======================
<BANKED_CODE,BANK_RELAYS..> 1 (was RCODE)
  Relative segment, address: CODE 00002E8F - 00002EA2 (0x14 bytes), align: 0
  Segment part 1.
           ENTRY                   ADDRESS         REF BY
           =====                   =======         ======
           ?L_SUB                  00002E8F        BC95InitAT (BC95)
                                                   BC95PollingAT (BC95)
                                                   SysTimerTask (sysTimer)

    -------------------------------------------------------------------------
  LIBRARY MODULE, NAME : ?L_SUB_X

  SEGMENTS IN THE MODULE
  ======================
<BANKED_CODE,BANK_RELAYS..> 1 (was RCODE)
  Relative segment, address: CODE 00002DF8 - 00002E0F (0x18 bytes), align: 0
  Segment part 1.
           ENTRY                   ADDRESS         REF BY
           =====                   =======         ======
           ?L_SUB_X                00002DF8        PhySend (sMac)
                                                   SysTimerTask (sysTimer)
                                                   atCmdStart (netMngr)
                                                   sMacTask (sMac)

    -------------------------------------------------------------------------
  LIBRARY MODULE, NAME : ?L_SUB_FROM_X

  SEGMENTS IN THE MODULE
  ======================
<BANKED_CODE,BANK_RELAYS..> 1 (was RCODE)
  Relative segment, address: CODE 00002E67 - 00002E7A (0x14 bytes), align: 0
  Segment part 1.
           ENTRY                   ADDRESS         REF BY
           =====                   =======         ======
           ?L_SUB_FROM_X           00002E67        SysTimerTask (sysTimer)

    -------------------------------------------------------------------------
  LIBRARY MODULE, NAME : ?L_AND_X

  SEGMENTS IN THE MODULE
  ======================
<BANKED_CODE,BANK_RELAYS..> 1 (was RCODE)
  Relative segment, address: CODE 00002EF1 - 00002F03 (0x13 bytes), align: 0
  Segment part 1.
           ENTRY                   ADDRESS         REF BY
           =====                   =======         ======
           ?L_AND_X                00002EF1        PhyDataIndication (sMac)
                                                   PhySend (sMac)
                                                   sMacCmdNetSearchResp (sMac)
                                                   sMacTask (sMac)

    -------------------------------------------------------------------------
  LIBRARY MODULE, NAME : ?L_IOR

  SEGMENTS IN THE MODULE
  ======================
<BANKED_CODE,BANK_RELAYS..> 1 (was RCODE)
  Relative segment, address: CODE 00002F04 - 00002F16 (0x13 bytes), align: 0
  Segment part 1.
           ENTRY                   ADDRESS         REF BY
           =====                   =======         ======
           ?L_IOR                  00002F04        PhyDataIndication (sMac)
                                                   PhySend (sMac)
                                                   SleepTimeCompSet (hal_time)
                                                   TickGet (hal_time)
                                                   sMacCmdNetSearchResp (sMac)
                                                   sMacTask (sMac)

    -------------------------------------------------------------------------
  LIBRARY MODULE, NAME : ?L_MOV_X

  SEGMENTS IN THE MODULE
  ======================
<BANKED_CODE,BANK_RELAYS..> 1 (was RCODE)
  Relative segment, address: CODE 00002F8C - 00002F9A (0xf bytes), align: 0
  Segment part 0.
           ENTRY                   ADDRESS         REF BY
           =====                   =======         ======
           ?L_MOV_X                00002F8C        AppTask (Application)
                                                   BC95InitAT (BC95)
                                                   BC95PollingAT (BC95)
                                                   HalFlashRead (hal_flash)
                                                   McuPwmCfg (hal_pwm)
                                                   SleepTimeCompSet (hal_time)
                                                   SysTimerStart (sysTimer)
                                                   SysTimerTask (sysTimer)
                                                   TickGet (hal_time)
                                                   _large_write (?largewr)
                                                   att7053buPowerGet (att7053bu)
                                                   float_conversion (?largewr)
                                                   nvramBlockCheck (nvram)
                                                   nvramInit (nvram)
                                                   sMacCmdNetSearchResp (sMac)
                                                   sMacTask (sMac)
                                                   sNwkAddRoute (sNwk)
                                                   sNwkDelateRoute (sNwk)
                                                   sNwkGetNextHop (sNwk)
                                                   sNwkTask (sNwk)

    -------------------------------------------------------------------------
  LIBRARY MODULE, NAME : ?L_MOV_TO_X

  SEGMENTS IN THE MODULE
  ======================
<BANKED_CODE,BANK_RELAYS..> 1 (was RCODE)
  Relative segment, address: CODE 00002F9B - 00002FA9 (0xf bytes), align: 0
  Segment part 2.
           ENTRY                   ADDRESS         REF BY
           =====                   =======         ======
           ?L_MOV_TO_X             00002F9B        BC95InitAT (BC95)
                                                   BC95PollingAT (BC95)
                                                   PhyDataIndication (sMac)
                                                   PhySend (sMac)
                                                   SleepTimeCompSet (hal_time)
                                                   SysTimerStart (sysTimer)
                                                   SysTimerTask (sysTimer)
                                                   TickGet (hal_time)
                                                   _large_write (?largewr)
                                                   atCmdStart (netMngr)
                                                   sMacCmdNetSearchResp (sMac)
                                                   sMacCmdPingPong (sMac)
                                                   sMacSend (sMac)
                                                   sMacTask (sMac)
                                                   sNwkAddRoute (sNwk)
                                                   sNwkTask (sNwk)

    -------------------------------------------------------------------------
  LIBRARY MODULE, NAME : ?XLOAD_R2345

  SEGMENTS IN THE MODULE
  ======================
<BANKED_CODE,BANK_RELAYS..> 1 (was RCODE)
  Relative segment, address: CODE 00002FD2 - 00002FDD (0xc bytes), align: 0
  Segment part 0.
           ENTRY                   ADDRESS         REF BY
           =====                   =======         ======
           ?XLOAD_R2345            00002FD2        ApplicationInit (Application)
                                                   SysTimerTask (sysTimer)
                                                   _large_write (?largewr)
                                                   att7053buInit (att7053bu)
                                                   nvramInit (nvram)
                                                   sMacAddressGet (sMac)
                                                   sMacTask (sMac)
                                                   sNwkTask (sNwk)

    -------------------------------------------------------------------------
  LIBRARY MODULE, NAME : ?XSTORE_R2345

  SEGMENTS IN THE MODULE
  ======================
<BANKED_CODE,BANK_RELAYS..> 1 (was RCODE)
  Relative segment, address: CODE 00002FC6 - 00002FD1 (0xc bytes), align: 0
  Segment part 0.
           ENTRY                   ADDRESS         REF BY
           =====                   =======         ======
           ?XSTORE_R2345           00002FC6        PhySend (sMac)
                                                   sMacTask (sMac)

    -------------------------------------------------------------------------
  LIBRARY MODULE, NAME : ?XLOAD_R4567

  SEGMENTS IN THE MODULE
  ======================
<BANKED_CODE,BANK_RELAYS..> 1 (was RCODE)
  Relative segment, address: CODE 00002FF6 - 00003001 (0xc bytes), align: 0
  Segment part 0.
           ENTRY                   ADDRESS         REF BY
           =====                   =======         ======
           ?XLOAD_R4567            00002FF6        sNwkAddRoute (sNwk)

    -------------------------------------------------------------------------
  LIBRARY MODULE, NAME : ?XSTORE_R4567

  SEGMENTS IN THE MODULE
  ======================
<BANKED_CODE,BANK_RELAYS..> 1 (was RCODE)
  Relative segment, address: CODE 00003002 - 0000300D (0xc bytes), align: 0
  Segment part 0.
           ENTRY                   ADDRESS         REF BY
           =====                   =======         ======
           ?XSTORE_R4567           00003002        sNwkAddRoute (sNwk)

    -------------------------------------------------------------------------
  LIBRARY MODULE, NAME : ?XLOAD_R0123

  SEGMENTS IN THE MODULE
  ======================
<BANKED_CODE,BANK_RELAYS..> 1 (was RCODE)
  Relative segment, address: CODE 00002FEA - 00002FF5 (0xc bytes), align: 0
  Segment part 0.
           ENTRY                   ADDRESS         REF BY
           =====                   =======         ======
           ?XLOAD_R0123            00002FEA        SysTimerTask (sysTimer)
                                                   _large_write (?largewr)
                                                   sMacCmdNetSearchReq (sMac)
                                                   sMacCmdNetSearchResp (sMac)
                                                   sMacCmdPingPong (sMac)
                                                   sMacSend (sMac)
                                                   sMacTask (sMac)
                                                   sNwkRecv (sNwk)
                                                   sNwkTask (sNwk)

    -------------------------------------------------------------------------
  LIBRARY MODULE, NAME : ?XSTORE_R0123

  SEGMENTS IN THE MODULE
  ======================
<BANKED_CODE,BANK_RELAYS..> 1 (was RCODE)
  Relative segment, address: CODE 00002FDE - 00002FE9 (0xc bytes), align: 0
  Segment part 0.
           ENTRY                   ADDRESS         REF BY
           =====                   =======         ======
           ?XSTORE_R0123           00002FDE        PhyDataIndication (sMac)
                                                   SysTimerTask (sysTimer)
                                                   _large_write (?largewr)
                                                   sMacCmdNetSearchReq (sMac)
                                                   sMacCmdNetSearchResp (sMac)
                                                   sMacCmdPingPong (sMac)
                                                   sMacSend (sMac)
                                                   sMacTask (sMac)
                                                   sNwkRecv (sNwk)
                                                   sNwkTask (sNwk)

    -------------------------------------------------------------------------
  LIBRARY MODULE, NAME : ?MOVE_LONG8_XDATA_IDATA

  SEGMENTS IN THE MODULE
  ======================
<BANKED_CODE,BANK_RELAYS..> 1 (was RCODE)
  Relative segment, address: CODE 00002FB9 - 00002FC5 (0xd bytes), align: 0
  Segment part 0.
           ENTRY                   ADDRESS         REF BY
           =====                   =======         ======
           ?MOVE_LONG8_XDATA_IDATA
                                   00002FB9        ?PUSH_XSTACK_I (?PUSH_XSTACK_I)

    -------------------------------------------------------------------------
  LIBRARY MODULE, NAME : ?MOVE_LONG8_XDATA_XDATA

  SEGMENTS IN THE MODULE
  ======================
<BANKED_CODE,BANK_RELAYS..> 1 (was RCODE)
  Relative segment, address: CODE 00002D14 - 00002D34 (0x21 bytes), align: 0
  Segment part 0.
           ENTRY                   ADDRESS         REF BY
           =====                   =======         ======
           ?MOVE_LONG8_XDATA_XDATA
                                   00002D14        ?PUSH_XSTACK8_X (?PUSH_XSTACK8_X)
                                                   attributeGet (attribute)

    -------------------------------------------------------------------------
  LIBRARY MODULE, NAME : ?S_DIV_MOD

  SEGMENTS IN THE MODULE
  ======================
<BANKED_CODE,BANK_RELAYS..> 1 (was RCODE)
  Relative segment, address: CODE 00002723 - 00002763 (0x41 bytes), align: 0
  Segment part 0.
           ENTRY                   ADDRESS         REF BY
           =====                   =======         ======
           ?S_DIV_MOD              0000275C        float_conversion (?largewr)
    -------------------------------------------------------------------------
<BANKED_CODE,BANK_RELAYS..> 1 (was RCODE)
  Relative segment, address: CODE 00002764 - 000027BC (0x59 bytes), align: 0
  Segment part 1.             Intra module refs:   ?S_DIV_MOD
           ENTRY                   ADDRESS         REF BY
           =====                   =======         ======
           ?US_DIV_MOD             00002764        sNwkTask (sNwk)

    -------------------------------------------------------------------------
  LIBRARY MODULE, NAME : ?SS_SHR

  SEGMENTS IN THE MODULE
  ======================
<BANKED_CODE,BANK_RELAYS..> 1 (was RCODE)
  Relative segment, address: CODE 00002F4D - 00002F4F (0x3 bytes), align: 0
  Segment part 1.             Intra module refs:   Segment part 2
           ENTRY                   ADDRESS         REF BY
           =====                   =======         ======
           ?SS_SHR                 00002F4D        BC95IoTHeaderAdd (BC95)
    -------------------------------------------------------------------------
<BANKED_CODE,BANK_RELAYS..> 1 (was RCODE)
  Relative segment, address: CODE 00002F50 - 00002F5C (0xd bytes), align: 0
  Segment part 2.             Intra module refs:   ?SS_SHR

    -------------------------------------------------------------------------
  LIBRARY MODULE, NAME : ?S_SHL

  SEGMENTS IN THE MODULE
  ======================
<BANKED_CODE,BANK_RELAYS..> 1 (was RCODE)
  Relative segment, address: CODE 00002F17 - 00002F19 (0x3 bytes), align: 0
  Segment part 0.
           ENTRY                   ADDRESS         REF BY
           =====                   =======         ======
           ?S_SHL                  00002F17        HalFlashRead (hal_flash)
                                                   PhySend (sMac)
                                                   atcmd_resp_search (netMngr)
                                                   nvramBlockCheck (nvram)
                                                   nvramInit (nvram)
                                                   sNwkAddRoute (sNwk)
                                                   sNwkGetNextHop (sNwk)
                                                   sNwkTask (sNwk)
    -------------------------------------------------------------------------
<BANKED_CODE,BANK_RELAYS..> 1 (was RCODE)
  Relative segment, address: CODE 00002F1A - 00002F1C (0x3 bytes), align: 0
  Segment part 1.             Intra module refs:   Segment part 2
           ENTRY                   ADDRESS         REF BY
           =====                   =======         ======
           ?S_SHL_REW              00002F1A 
    -------------------------------------------------------------------------
<BANKED_CODE,BANK_RELAYS..> 1 (was RCODE)
  Relative segment, address: CODE 00002F1D - 00002F29 (0xd bytes), align: 0
  Segment part 2.             Intra module refs:   ?S_SHL
                                                   ?S_SHL_REW

    -------------------------------------------------------------------------
  LIBRARY MODULE, NAME : ?ALLOC_XSTACK8

  SEGMENTS IN THE MODULE
  ======================
<BANKED_CODE,BANK_RELAYS..> 1 (was RCODE)
  Relative segment, address: CODE 00002E27 - 00002E3C (0x16 bytes), align: 0
  Segment part 0.
           ENTRY                   ADDRESS         REF BY
           =====                   =======         ======
           ?ALLOC_XSTACK8          00002E27        AppTask (Application)
                                                   BC95InitAT (BC95)
                                                   BC95PollingAT (BC95)
                                                   HalFlashWrite (hal_flash)
                                                   PhyDataIndication (sMac)
                                                   PhySend (sMac)
                                                   SleepTimeCompSet (hal_time)
                                                   SysTimerTask (sysTimer)
                                                   _large_write (?largewr)
                                                   atCmdStart (netMngr)
                                                   atcmd_resp_search (netMngr)
                                                   att7053buInit (att7053bu)
                                                   att7053buRegRead (att7053bu)
                                                   att7053buRegWrite (att7053bu)
                                                   attributeGet (attribute)
                                                   float_conversion (?largewr)
                                                   halRfTransmit (hal_rf)
                                                   halSpiTranceive (gpioSpi)
                                                   netMngrInit (netMngr)
                                                   netMngrTask (netMngr)
                                                   nvramBlockCheck (nvram)
                                                   nvramInit (nvram)
                                                   sMacAddressGet (sMac)
                                                   sMacCmdNetSearchReq (sMac)
                                                   sMacCmdNetSearchResp (sMac)
                                                   sMacCmdPingPong (sMac)
                                                   sMacInit (sMac)
                                                   sMacSend (sMac)
                                                   sMacTask (sMac)
                                                   sNwkTask (sNwk)
                                                   sprintf (?sprintf)

    -------------------------------------------------------------------------
  LIBRARY MODULE, NAME : ?DEALLOC_XSTACK8

  SEGMENTS IN THE MODULE
  ======================
<BANKED_CODE,BANK_RELAYS..> 1 (was RCODE)
  Relative segment, address: CODE 00002DAC - 00002DC6 (0x1b bytes), align: 0
  Segment part 0.
           ENTRY                   ADDRESS         REF BY
           =====                   =======         ======
           ?DEALLOC_XSTACK8        00002DAC        ?Subroutine0 (BC95)
                                                   ?Subroutine0 (att7053bu)
                                                   ?Subroutine0 (nvram)
                                                   ?Subroutine0 (sNwk)
                                                   ?Subroutine1 (netMngr)
                                                   ?Subroutine1 (sMac)
                                                   ?Subroutine2 (netMngr)
                                                   AppTask (Application)
                                                   ApplicationInit (Application)
                                                   BC95InitAT (BC95)
                                                   BC95IoTHeaderAdd (BC95)
                                                   BC95PollingAT (BC95)
                                                   BC95RxIndicationSearch (BC95)
                                                   HalFlashWrite (hal_flash)
                                                   PhyDataIndication (sMac)
                                                   PhySend (sMac)
                                                   Segment part 125 (sMac)
                                                   Segment part 32 (?largewr)
                                                   SleepTimeCompSet (hal_time)
                                                   SysTimerTask (sysTimer)
                                                   _large_write (?largewr)
                                                   atCmdStart (netMngr)
                                                   atcmd_resp_search (netMngr)
                                                   att7053buInit (att7053bu)
                                                   attributeGet (attribute)
                                                   halRfTransmit (hal_rf)
                                                   halSpiTranceive (gpioSpi)
                                                   netSend (netMngr)
                                                   nvramBlockCheck (nvram)
                                                   nvramInit (nvram)
                                                   sMacAddressGet (sMac)
                                                   sMacCmdNetSearchReq (sMac)
                                                   sMacCmdNetSearchResp (sMac)
                                                   sMacCmdPingPong (sMac)
                                                   sMacInit (sMac)
                                                   sMacSend (sMac)
                                                   sMacTask (sMac)
                                                   sNwkInit (sNwk)
                                                   sNwkTask (sNwk)
                                                   sprintf (?sprintf)

    -------------------------------------------------------------------------
  LIBRARY MODULE, NAME : ?ADD_XSTACK_DISP8

  SEGMENTS IN THE MODULE
  ======================
<BANKED_CODE,BANK_RELAYS..> 1 (was RCODE)
  Relative segment, address: CODE 00002D91 - 00002DAB (0x1b bytes), align: 0
  Segment part 1.
           ENTRY                   ADDRESS         REF BY
           =====                   =======         ======
           ?ADD_XSTACK_DISP0_8     00002D91        ?PUSH_XSTACK_I (?PUSH_XSTACK_I)

    -------------------------------------------------------------------------
  LIBRARY MODULE, NAME : ?XSTACK_DISP8

  SEGMENTS IN THE MODULE
  ======================
<BANKED_CODE,BANK_RELAYS..> 1 (was RCODE)
  Relative segment, address: CODE 00003019 - 00003022 (0xa bytes), align: 0
  Segment part 1.
           ENTRY                   ADDRESS         REF BY
           =====                   =======         ======
           ?XSTACK_DISP0_8         00003019        AppTask (Application)
                                                   BC95IoTHeaderAdd (BC95)
                                                   HalFlashRead (hal_flash)
                                                   HalFlashWrite (hal_flash)
                                                   PhyDataIndication (sMac)
                                                   PhySend (sMac)
                                                   SysTimerStart (sysTimer)
                                                   SysTimerTask (sysTimer)
                                                   _large_write (?largewr)
                                                   atCmdStart (netMngr)
                                                   att7053buInit (att7053bu)
                                                   att7053buRegRead (att7053bu)
                                                   att7053buRegWrite (att7053bu)
                                                   crc32 (crc)
                                                   float_conversion (?largewr)
                                                   memcmp (?memcmp)
                                                   memcpy (?memcpy)
                                                   netMngrInit (netMngr)
                                                   sMacCmdNetSearchResp (sMac)
                                                   sMacCmdPingPong (sMac)
                                                   sMacSend (sMac)
                                                   sMacTask (sMac)
                                                   sNwkAddRoute (sNwk)
                                                   sNwkRecv (sNwk)
                                                   sNwkTask (sNwk)
                                                   sprintf (?sprintf)

    -------------------------------------------------------------------------
  LIBRARY MODULE, NAME : ?XSTACK_DISP8_RP

  SEGMENTS IN THE MODULE
  ======================
<BANKED_CODE,BANK_RELAYS..> 1 (was RCODE)
  Relative segment, address: CODE 00002DE0 - 00002DE7 (0x8 bytes), align: 0
  Segment part 0.
           ENTRY                   ADDRESS         REF BY
           =====                   =======         ======
           ?XSTACK_DISP100_8       00002DE0        _large_write (?largewr)
                                                   sprintf (?sprintf)
    -------------------------------------------------------------------------
<BANKED_CODE,BANK_RELAYS..> 1 (was RCODE)
  Relative segment, address: CODE 00002DE8 - 00002DEF (0x8 bytes), align: 0
  Segment part 1.
           ENTRY                   ADDRESS         REF BY
           =====                   =======         ======
           ?XSTACK_DISP101_8       00002DE8        AppTask (Application)
                                                   BC95InitAT (BC95)
                                                   BC95PollingAT (BC95)
                                                   PhyDataIndication (sMac)
                                                   atcmd_resp_search (netMngr)
                                                   att7053buInit (att7053bu)
                                                   attributeGet (attribute)
                                                   sMacAddressGet (sMac)
                                                   sMacCmdNetSearchReq (sMac)
                                                   sMacCmdNetSearchResp (sMac)
                                                   sMacCmdPingPong (sMac)
                                                   sMacInit (sMac)
                                                   sMacSend (sMac)
                                                   sMacTask (sMac)
    -------------------------------------------------------------------------
<BANKED_CODE,BANK_RELAYS..> 1 (was RCODE)
  Relative segment, address: CODE 00002DF0 - 00002DF7 (0x8 bytes), align: 0
  Segment part 2.
           ENTRY                   ADDRESS         REF BY
           =====                   =======         ======
           ?XSTACK_DISP102_8       00002DF0        AppTask (Application)
                                                   PhySend (sMac)
                                                   atcmd_resp_search (netMngr)
                                                   attributeGet (attribute)

    -------------------------------------------------------------------------
  LIBRARY MODULE, NAME : ?CALL_IND

  SEGMENTS IN THE MODULE
  ======================
<BANKED_CODE,BANK_RELAYS..> 1 (was RCODE)
  Relative segment, address: CODE 000032EC - 000032ED (0x2 bytes), align: 0
  Segment part 0.
           ENTRY                   ADDRESS         REF BY
           =====                   =======         ======
           ?CALL_IND               000032EC        BC95RxIndicationSearch (BC95)
                                                   BosScheduler (kernel)
                                                   ST_ISR (hal_time)
                                                   SysTimerTask (sysTimer)
                                                   UART1_RX_ISR (hal_uart)
                                                   _large_write (?largewr)
                                                   rfIsr (hal_rf)
                                                   sMacTask (sMac)
                                                   sNwkRecv (sNwk)
                                                   sNwkTask (sNwk)

    -------------------------------------------------------------------------
  LIBRARY MODULE, NAME : ?BANKED_ENTER_XDATA

  SEGMENTS IN THE MODULE
  ======================
<BANKED_CODE,BANK_RELAYS..> 1 (was RCODE)
  Relative segment, address: CODE 000029A0 - 00002A0B (0x6c bytes), align: 0
  Segment part 1.
           ENTRY                   ADDRESS         REF BY
           =====                   =======         ======
           ?BANKED_ENTER_XDATA     000029A0        AppTask (Application)
                                                   BC95InitAT (BC95)
                                                   BC95IoTHeaderAdd (BC95)
                                                   BC95PollingAT (BC95)
                                                   BC95RxIndicationSearch (BC95)
                                                   BosEventSend (kernel)
                                                   BosMalloc (BosMem)
                                                   BosMemSet (BosMem)
                                                   BosScheduler (kernel)
                                                   HalFlashErase (hal_flash)
                                                   HalFlashRead (hal_flash)
                                                   HalFlashWrite (hal_flash)
                                                   McuPwmCfg (hal_pwm)
                                                   PhyDataIndication (sMac)
                                                   PhySend (sMac)
                                                   SleepTimeCompSet (hal_time)
                                                   SysTimerInit (sysTimer)
                                                   SysTimerStart (sysTimer)
                                                   SysTimerStop (sysTimer)
                                                   SysTimerTask (sysTimer)
                                                   TickGet (hal_time)
                                                   _BosFree (BosMem)
                                                   _SysTimerFree (sysTimer)
                                                   _large_write (?largewr)
                                                   atCmdStart (netMngr)
                                                   atCmdStop (netMngr)
                                                   atcmd_resp_search (netMngr)
                                                   att7053buInit (att7053bu)
                                                   att7053buPowerGet (att7053bu)
                                                   att7053buRegRead (att7053bu)
                                                   att7053buRegWrite (att7053bu)
                                                   attributeGet (attribute)
                                                   crc32 (crc)
                                                   float_conversion (?largewr)
                                                   halSpiBufRead (gpioSpi)
                                                   halSpiBufWrite (gpioSpi)
                                                   halUartRecv (hal_uart)
                                                   halUartSend (hal_uart)
                                                   list_add (list)
                                                   list_add_tail (list)
                                                   list_del (list)
                                                   memcmp (?memcmp)
                                                   memcpy (?memcpy)
                                                   netMngrInit (netMngr)
                                                   netMngrTask (netMngr)
                                                   netRecv (netMngr)
                                                   netSend (netMngr)
                                                   nvramBlockCheck (nvram)
                                                   nvramInit (nvram)
                                                   sMacCmdNetSearchReq (sMac)
                                                   sMacCmdNetSearchResp (sMac)
                                                   sMacCmdPingPong (sMac)
                                                   sMacDataSendCallBack (sNwk)
                                                   sMacInit (sMac)
                                                   sMacSend (sMac)
                                                   sMacTask (sMac)
                                                   sNwkAddRoute (sNwk)
                                                   sNwkDelateRoute (sNwk)
                                                   sNwkGetNextHop (sNwk)
                                                   sNwkInit (sNwk)
                                                   sNwkRecv (sNwk)
                                                   sNwkTask (sNwk)
                                                   sprintf (?sprintf)
                                                   strcpy (?strcpy)
                                                   sum8 (crc)

    -------------------------------------------------------------------------
  LIBRARY MODULE, NAME : ?BANKED_LEAVE_XDATA

  SEGMENTS IN THE MODULE
  ======================
<BANKED_CODE,BANK_RELAYS..> 1 (was RCODE)
  Relative segment, address: CODE 00002C13 - 00002C58 (0x46 bytes), align: 0
  Segment part 1.
           ENTRY                   ADDRESS         REF BY
           =====                   =======         ======
           ?BANKED_LEAVE_XDATA     00002C13        ?Subroutine0 (crc)
                                                   ?Subroutine0 (hal_flash)
                                                   ?Subroutine0 (nvram)
                                                   ?Subroutine0 (sysTimer)
                                                   ?Subroutine1 (hal_uart)
                                                   ?Subroutine1 (sMac)
                                                   AppTask (Application)
                                                   BC95RxIndicationSearch (BC95)
                                                   BosEventSend (kernel)
                                                   BosMalloc (BosMem)
                                                   BosMemSet (BosMem)
                                                   HalFlashRead (hal_flash)
                                                   McuPwmCfg (hal_pwm)
                                                   Segment part 125 (sMac)
                                                   Segment part 21 (att7053bu)
                                                   Segment part 25 (hal_time)
                                                   Segment part 25 (netMngr)
                                                   Segment part 25 (sNwk)
                                                   Segment part 32 (?largewr)
                                                   Segment part 38 (list)
                                                   Segment part 43 (netMngr)
                                                   Segment part 79 (BC95)
                                                   SysTimerStart (sysTimer)
                                                   SysTimerTask (sysTimer)
                                                   _BosFree (BosMem)
                                                   atCmdStop (netMngr)
                                                   att7053buInit (att7053bu)
                                                   attributeGet (attribute)
                                                   halSpiBufRead (gpioSpi)
                                                   halSpiBufWrite (gpioSpi)
                                                   halUartSend (hal_uart)
                                                   memcmp (?memcmp)
                                                   memcpy (?memcpy)
                                                   sMacCmdPingPong (sMac)
                                                   sMacDataSendCallBack (sNwk)
                                                   sMacSend (sMac)
                                                   sNwkInit (sNwk)
                                                   sprintf (?sprintf)
                                                   strcpy (?strcpy)

    -------------------------------------------------------------------------
  LIBRARY MODULE, NAME : ?INTERRUPT_ENTER_XSP

  SEGMENTS IN THE MODULE
  ======================
<BANKED_CODE,BANK_RELAYS..> 1 (was RCODE)
  Relative segment, address: CODE 00002A6C - 00002ACA (0x5f bytes), align: 0
  Segment part 1.
           ENTRY                   ADDRESS         REF BY
           =====                   =======         ======
           ?INTERRUPT_ENTER_XSP    00002A6C        ST_ISR (hal_time)
                                                   UART1_RX_ISR (hal_uart)
                                                   rfIsr (hal_rf)

    -------------------------------------------------------------------------
  LIBRARY MODULE, NAME : ?INTERRUPT_LEAVE_XSP

  SEGMENTS IN THE MODULE
  ======================
<BANKED_CODE,BANK_RELAYS..> 1 (was RCODE)
  Relative segment, address: CODE 00002ACB - 00002B22 (0x58 bytes), align: 0
  Segment part 1.
           ENTRY                   ADDRESS         REF BY
           =====                   =======         ======
           ?INTERRUPT_LEAVE_XSP    00002ACB        ST_ISR (hal_time)
                                                   UART1_RX_ISR (hal_uart)
                                                   rfIsr (hal_rf)

    -------------------------------------------------------------------------
  LIBRARY MODULE, NAME : ?PUSH_XSTACK_I

  SEGMENTS IN THE MODULE
  ======================
<BANKED_CODE,BANK_RELAYS..> 1 (was RCODE)
  Relative segment, address: CODE 00002E10 - 00002E13 (0x4 bytes), align: 0
  Segment part 0.
           ENTRY                   ADDRESS         REF BY
           =====                   =======         ======
           ?PUSH_XSTACK_I_FOUR     00002E10        AppTask (Application)
                                                   nvramBlockCheck (nvram)
                                                   sMacTask (sMac)
    -------------------------------------------------------------------------
<BANKED_CODE,BANK_RELAYS..> 1 (was RCODE)
  Relative segment, address: CODE 00002E14 - 00002E17 (0x4 bytes), align: 0
  Segment part 2.
           ENTRY                   ADDRESS         REF BY
           =====                   =======         ======
           ?PUSH_XSTACK_I_TWO      00002E14        AppTask (Application)
                                                   BC95InitAT (BC95)
                                                   BC95IoTHeaderAdd (BC95)
                                                   BC95PollingAT (BC95)
                                                   BC95RxIndicationSearch (BC95)
                                                   PhyDataIndication (sMac)
                                                   PhySend (sMac)
                                                   _large_write (?largewr)
                                                   atCmdStart (netMngr)
                                                   atcmd_resp_search (netMngr)
                                                   attributeGet (attribute)
                                                   netSend (netMngr)
                                                   nvramBlockCheck (nvram)
                                                   nvramInit (nvram)
                                                   sMacInit (sMac)
                                                   sMacTask (sMac)
                                                   sNwkInit (sNwk)
                                                   sprintf (?sprintf)
    -------------------------------------------------------------------------
<BANKED_CODE,BANK_RELAYS..> 1 (was RCODE)
  Relative segment, address: CODE 00002E18 - 00002E19 (0x2 bytes), align: 0
  Segment part 3.
           ENTRY                   ADDRESS         REF BY
           =====                   =======         ======
           ?PUSH_XSTACK_I_ONE      00002E18        _large_write (?largewr)
                                                   sMacTask (sMac)
    -------------------------------------------------------------------------
<BANKED_CODE,BANK_RELAYS..> 1 (was RCODE)
  Relative segment, address: CODE 00002E1A - 00002E26 (0xd bytes), align: 0
  Segment part 4.             Intra module refs:   ?PUSH_XSTACK_I_FOUR
                                                   ?PUSH_XSTACK_I_ONE
                                                   ?PUSH_XSTACK_I_TWO
           ENTRY                   ADDRESS         REF BY
           =====                   =======         ======
           ?PUSH_XSTACK_I          00002E1A 

    -------------------------------------------------------------------------
  LIBRARY MODULE, NAME : ?PUSH_XSTACK8_X

  SEGMENTS IN THE MODULE
  ======================
<BANKED_CODE,BANK_RELAYS..> 1 (was RCODE)
  Relative segment, address: CODE 00002C91 - 00002C94 (0x4 bytes), align: 0
  Segment part 1.
           ENTRY                   ADDRESS         REF BY
           =====                   =======         ======
           ?PUSH_XSTACK8_X_FOUR    00002C91        AppTask (Application)
                                                   ApplicationInit (Application)
                                                   BC95InitAT (BC95)
                                                   BC95PollingAT (BC95)
                                                   attributeGet (attribute)
                                                   nvramInit (nvram)
                                                   sMacAddressGet (sMac)
                                                   sMacCmdNetSearchReq (sMac)
                                                   sMacCmdNetSearchResp (sMac)
                                                   sMacCmdPingPong (sMac)
                                                   sMacInit (sMac)
                                                   sMacSend (sMac)
                                                   sMacTask (sMac)
    -------------------------------------------------------------------------
<BANKED_CODE,BANK_RELAYS..> 1 (was RCODE)
  Relative segment, address: CODE 00002C95 - 00002C98 (0x4 bytes), align: 0
  Segment part 3.
           ENTRY                   ADDRESS         REF BY
           =====                   =======         ======
           ?PUSH_XSTACK8_X_TWO     00002C95        BC95InitAT (BC95)
                                                   BC95PollingAT (BC95)
                                                   _large_write (?largewr)
                                                   sNwkTask (sNwk)
    -------------------------------------------------------------------------
<BANKED_CODE,BANK_RELAYS..> 1 (was RCODE)
  Relative segment, address: CODE 00002C99 - 00002CC1 (0x29 bytes), align: 0
  Segment part 5.             Intra module refs:   ?PUSH_XSTACK8_X_FOUR
                                                   ?PUSH_XSTACK8_X_TWO
           ENTRY                   ADDRESS         REF BY
           =====                   =======         ======
           ?PUSH_XSTACK8_X         00002C99 

    -------------------------------------------------------------------------
  LIBRARY MODULE, NAME : ?largewr

  SEGMENTS IN THE MODULE
  ======================
<BANKED_CODE,BANK_RELAYS..> 1 (was BANKED_CODE)
  Relative segment, address: CODE 0000592F - 00005DB7 (0x489 bytes), align: 0
  Segment part 30.            Intra module refs:   float_conversion::?relay
           LOCAL                   ADDRESS         
           =====                   =======         
           float_conversion        0000592F 
               XSTACK = 00000068 ( 00000013 )
               ISTACK = 00000000 ( 00000002 )
    -------------------------------------------------------------------------
<BANKED_CODE,BANK_RELAYS..> 1 (was BANKED_CODE)
  Relative segment, address: CODE 00005DB8 - 00005DBF (0x8 bytes), align: 0
  Segment part 32.            Intra module refs:   _large_write
                                                   float_conversion
    -------------------------------------------------------------------------
<BANKED_CODE,BANK_RELAYS..> 1 (was BANKED_CODE)
  Relative segment, address: CODE 00005DC0 - 00005DCC (0xd bytes), align: 0
  Segment part 33.            Intra module refs:   float_conversion
    -------------------------------------------------------------------------
<BANKED_CODE,BANK_RELAYS..> 1 (was BANKED_CODE)
  Relative segment, address: CODE 00005DCD - 00005DD5 (0x9 bytes), align: 0
  Segment part 34.            Intra module refs:   float_conversion
    -------------------------------------------------------------------------
<BANKED_CODE,BANK_RELAYS..> 1 (was BANKED_CODE)
  Relative segment, address: CODE 00005DD6 - 00005DE3 (0xe bytes), align: 0
  Segment part 35.            Intra module refs:   float_conversion
    -------------------------------------------------------------------------
<BANKED_CODE,BANK_RELAYS..> 1 (was BANKED_CODE)
  Relative segment, address: CODE 00005DE4 - 00005DEF (0xc bytes), align: 0
  Segment part 36.            Intra module refs:   float_conversion
    -------------------------------------------------------------------------
<BANKED_CODE,BANK_RELAYS..> 1 (was BANKED_CODE)
  Relative segment, address: CODE 00005DF0 - 00005DFB (0xc bytes), align: 0
  Segment part 37.            Intra module refs:   float_conversion
    -------------------------------------------------------------------------
<BANKED_CODE,BANK_RELAYS..> 1 (was BANKED_CODE)
  Relative segment, address: CODE 00005DFC - 00005E01 (0x6 bytes), align: 0
  Segment part 38.            Intra module refs:   float_conversion
    -------------------------------------------------------------------------
<BANKED_CODE,BANK_RELAYS..> 1 (was BANKED_CODE)
  Relative segment, address: CODE 00005E02 - 00005E0C (0xb bytes), align: 0
  Segment part 39.            Intra module refs:   Segment part 38
                                                   _large_write
    -------------------------------------------------------------------------
<BANKED_CODE,BANK_RELAYS..> 1 (was BANKED_CODE)
  Relative segment, address: CODE 00005E0D - 00005E0F (0x3 bytes), align: 0
  Segment part 40.            Intra module refs:   float_conversion
    -------------------------------------------------------------------------
<BANKED_CODE,BANK_RELAYS..> 1 (was BANKED_CODE)
  Relative segment, address: CODE 00005E10 - 00005E16 (0x7 bytes), align: 0
  Segment part 41.            Intra module refs:   Segment part 40
                                                   float_conversion
    -------------------------------------------------------------------------
<BANKED_CODE,BANK_RELAYS..> 1 (was BANKED_CODE)
  Relative segment, address: CODE 00005E17 - 00005E20 (0xa bytes), align: 0
  Segment part 42.            Intra module refs:   float_conversion
    -------------------------------------------------------------------------
<BANKED_CODE,BANK_RELAYS..> 1 (was BANKED_CODE)
  Relative segment, address: CODE 00005E21 - 00005E24 (0x4 bytes), align: 0
  Segment part 43.            Intra module refs:   _large_write
    -------------------------------------------------------------------------
<BANKED_CODE,BANK_RELAYS..> 1 (was BANKED_CODE)
  Relative segment, address: CODE 00005E25 - 00005E25 (0x1 bytes), align: 0
  Segment part 44.            Intra module refs:   Segment part 43
                                                   _large_write
                                                   float_conversion
    -------------------------------------------------------------------------
<BANKED_CODE,BANK_RELAYS..> 1 (was BANKED_CODE)
  Relative segment, address: CODE 00005E26 - 00005E2B (0x6 bytes), align: 0
  Segment part 45.            Intra module refs:   Segment part 44
                                                   _large_write
    -------------------------------------------------------------------------
<BANKED_CODE,BANK_RELAYS..> 1 (was BANKED_CODE)
  Relative segment, address: CODE 00005E2C - 00005E31 (0x6 bytes), align: 0
  Segment part 46.            Intra module refs:   Segment part 45
                                                   _large_write
    -------------------------------------------------------------------------
<BANKED_CODE,BANK_RELAYS..> 1 (was BANKED_CODE)
  Relative segment, address: CODE 00005E32 - 00005E33 (0x2 bytes), align: 0
  Segment part 47.            Intra module refs:   float_conversion
    -------------------------------------------------------------------------
<BANKED_CODE,BANK_RELAYS..> 1 (was BANKED_CODE)
  Relative segment, address: CODE 00005E34 - 00005E37 (0x4 bytes), align: 0
  Segment part 48.            Intra module refs:   Segment part 47
                                                   float_conversion
    -------------------------------------------------------------------------
<BANKED_CODE,BANK_RELAYS..> 1 (was BANKED_CODE)
  Relative segment, address: CODE 00005E38 - 00005E3E (0x7 bytes), align: 0
  Segment part 49.            Intra module refs:   Segment part 48
                                                   float_conversion
    -------------------------------------------------------------------------
<BANKED_CODE,BANK_RELAYS..> 1 (was BANKED_CODE)
  Relative segment, address: CODE 00005E3F - 00006803 (0x9c5 bytes), align: 0
  Segment part 50.            Intra module refs:   _large_write::?relay
           ENTRY                   ADDRESS         REF BY
           =====                   =======         ======
           _large_write            00005E3F 
               calls direct
               XSTACK = 00000004 ( 00000068 )
               ISTACK = 00000000 ( 00000002 )
    -------------------------------------------------------------------------
<BANKED_CODE,BANK_RELAYS..> 1 (was BANKED_CODE)
  Relative segment, address: CODE 00006804 - 00006805 (0x2 bytes), align: 0
  Segment part 52.            Intra module refs:   _large_write
    -------------------------------------------------------------------------
<BANKED_CODE,BANK_RELAYS..> 1 (was BANKED_CODE)
  Relative segment, address: CODE 00006806 - 0000680D (0x8 bytes), align: 0
  Segment part 53.            Intra module refs:   Segment part 52
                                                   _large_write
                                                   float_conversion
    -------------------------------------------------------------------------
<BANKED_CODE,BANK_RELAYS..> 1 (was BANKED_CODE)
  Relative segment, address: CODE 0000680E - 00006816 (0x9 bytes), align: 0
  Segment part 54.            Intra module refs:   _large_write
    -------------------------------------------------------------------------
<BANKED_CODE,BANK_RELAYS..> 1 (was BANKED_CODE)
  Relative segment, address: CODE 00006817 - 00006824 (0xe bytes), align: 0
  Segment part 55.            Intra module refs:   _large_write
    -------------------------------------------------------------------------
<BANKED_CODE,BANK_RELAYS..> 1 (was BANKED_CODE)
  Relative segment, address: CODE 00006825 - 00006828 (0x4 bytes), align: 0
  Segment part 56.            Intra module refs:   _large_write
    -------------------------------------------------------------------------
<BANKED_CODE,BANK_RELAYS..> 1 (was BANKED_CODE)
  Relative segment, address: CODE 00006829 - 0000682D (0x5 bytes), align: 0
  Segment part 57.            Intra module refs:   Segment part 56
                                                   Segment part 68
    -------------------------------------------------------------------------
<BANKED_CODE,BANK_RELAYS..> 1 (was BANKED_CODE)
  Relative segment, address: CODE 0000682E - 00006836 (0x9 bytes), align: 0
  Segment part 58.            Intra module refs:   Segment part 57
                                                   _large_write
    -------------------------------------------------------------------------
<BANKED_CODE,BANK_RELAYS..> 1 (was BANKED_CODE)
  Relative segment, address: CODE 00006837 - 0000683B (0x5 bytes), align: 0
  Segment part 59.            Intra module refs:   _large_write
    -------------------------------------------------------------------------
<BANKED_CODE,BANK_RELAYS..> 1 (was BANKED_CODE)
  Relative segment, address: CODE 0000683C - 00006844 (0x9 bytes), align: 0
  Segment part 60.            Intra module refs:   Segment part 59
                                                   _large_write
    -------------------------------------------------------------------------
<BANKED_CODE,BANK_RELAYS..> 1 (was BANKED_CODE)
  Relative segment, address: CODE 00006845 - 0000684A (0x6 bytes), align: 0
  Segment part 61.            Intra module refs:   _large_write
    -------------------------------------------------------------------------
<BANKED_CODE,BANK_RELAYS..> 1 (was BANKED_CODE)
  Relative segment, address: CODE 0000684B - 00006854 (0xa bytes), align: 0
  Segment part 62.            Intra module refs:   _large_write
    -------------------------------------------------------------------------
<BANKED_CODE,BANK_RELAYS..> 1 (was BANKED_CODE)
  Relative segment, address: CODE 00006855 - 00006858 (0x4 bytes), align: 0
  Segment part 63.            Intra module refs:   _large_write
                                                   float_conversion
    -------------------------------------------------------------------------
<BANKED_CODE,BANK_RELAYS..> 1 (was BANKED_CODE)
  Relative segment, address: CODE 00006859 - 0000685E (0x6 bytes), align: 0
  Segment part 64.            Intra module refs:   Segment part 35
                                                   Segment part 63
                                                   Segment part 65
                                                   Segment part 76
    -------------------------------------------------------------------------
<BANKED_CODE,BANK_RELAYS..> 1 (was BANKED_CODE)
  Relative segment, address: CODE 0000685F - 00006863 (0x5 bytes), align: 0
  Segment part 65.            Intra module refs:   _large_write
                                                   float_conversion
    -------------------------------------------------------------------------
<BANKED_CODE,BANK_RELAYS..> 1 (was BANKED_CODE)
  Relative segment, address: CODE 00006864 - 0000686C (0x9 bytes), align: 0
  Segment part 66.            Intra module refs:   _large_write
    -------------------------------------------------------------------------
<BANKED_CODE,BANK_RELAYS..> 1 (was BANKED_CODE)
  Relative segment, address: CODE 0000686D - 00006873 (0x7 bytes), align: 0
  Segment part 67.            Intra module refs:   Segment part 66
                                                   _large_write
    -------------------------------------------------------------------------
<BANKED_CODE,BANK_RELAYS..> 1 (was BANKED_CODE)
  Relative segment, address: CODE 00006874 - 00006879 (0x6 bytes), align: 0
  Segment part 68.            Intra module refs:   _large_write
    -------------------------------------------------------------------------
<BANKED_CODE,BANK_RELAYS..> 1 (was BANKED_CODE)
  Relative segment, address: CODE 0000687A - 0000687D (0x4 bytes), align: 0
  Segment part 69.            Intra module refs:   _large_write
                                                   float_conversion
    -------------------------------------------------------------------------
<BANKED_CODE,BANK_RELAYS..> 1 (was BANKED_CODE)
  Relative segment, address: CODE 0000687E - 00006886 (0x9 bytes), align: 0
  Segment part 70.            Intra module refs:   Segment part 69
                                                   Segment part 71
                                                   Segment part 75
    -------------------------------------------------------------------------
<BANKED_CODE,BANK_RELAYS..> 1 (was BANKED_CODE)
  Relative segment, address: CODE 00006887 - 0000688D (0x7 bytes), align: 0
  Segment part 71.            Intra module refs:   _large_write
    -------------------------------------------------------------------------
<BANKED_CODE,BANK_RELAYS..> 1 (was BANKED_CODE)
  Relative segment, address: CODE 0000688E - 00006893 (0x6 bytes), align: 0
  Segment part 72.            Intra module refs:   _large_write
    -------------------------------------------------------------------------
<BANKED_CODE,BANK_RELAYS..> 1 (was BANKED_CODE)
  Relative segment, address: CODE 00006894 - 00006894 (0x1 bytes), align: 0
  Segment part 73.            Intra module refs:   Segment part 72
                                                   _large_write
    -------------------------------------------------------------------------
<BANKED_CODE,BANK_RELAYS..> 1 (was BANKED_CODE)
  Relative segment, address: CODE 00006895 - 00006898 (0x4 bytes), align: 0
  Segment part 74.            Intra module refs:   Segment part 73
                                                   _large_write
    -------------------------------------------------------------------------
<BANKED_CODE,BANK_RELAYS..> 1 (was BANKED_CODE)
  Relative segment, address: CODE 00006899 - 0000689F (0x7 bytes), align: 0
  Segment part 75.            Intra module refs:   _large_write
    -------------------------------------------------------------------------
<BANKED_CODE,BANK_RELAYS..> 1 (was BANKED_CODE)
  Relative segment, address: CODE 000068A0 - 000068A9 (0xa bytes), align: 0
  Segment part 76.            Intra module refs:   _large_write
                                                   float_conversion
    -------------------------------------------------------------------------
<BANKED_CODE,BANK_RELAYS..> 1 (was BANKED_CODE)
  Relative segment, address: CODE 000068AA - 000068AD (0x4 bytes), align: 0
  Segment part 77.            Intra module refs:   _large_write
    -------------------------------------------------------------------------
<BANKED_CODE,BANK_RELAYS..> 1 (was BANKED_CODE)
  Relative segment, address: CODE 000068AE - 000068B6 (0x9 bytes), align: 0
  Segment part 78.            Intra module refs:   Segment part 77
                                                   Segment part 80
                                                   Segment part 97
    -------------------------------------------------------------------------
<BANKED_CODE,BANK_RELAYS..> 1 (was BANKED_CODE)
  Relative segment, address: CODE 000068B7 - 000068BC (0x6 bytes), align: 0
  Segment part 79.            Intra module refs:   _large_write
    -------------------------------------------------------------------------
<BANKED_CODE,BANK_RELAYS..> 1 (was BANKED_CODE)
  Relative segment, address: CODE 000068BD - 000068C1 (0x5 bytes), align: 0
  Segment part 80.            Intra module refs:   Segment part 79
                                                   _large_write
    -------------------------------------------------------------------------
<BANKED_CODE,BANK_RELAYS..> 1 (was BANKED_CODE)
  Relative segment, address: CODE 000068C2 - 000068C5 (0x4 bytes), align: 0
  Segment part 81.            Intra module refs:   _large_write
    -------------------------------------------------------------------------
<BANKED_CODE,BANK_RELAYS..> 1 (was BANKED_CODE)
  Relative segment, address: CODE 000068C6 - 000068CE (0x9 bytes), align: 0
  Segment part 82.            Intra module refs:   Segment part 81
                                                   Segment part 87
                                                   Segment part 88
    -------------------------------------------------------------------------
<BANKED_CODE,BANK_RELAYS..> 1 (was BANKED_CODE)
  Relative segment, address: CODE 000068CF - 000068D1 (0x3 bytes), align: 0
  Segment part 83.            Intra module refs:   _large_write
    -------------------------------------------------------------------------
<BANKED_CODE,BANK_RELAYS..> 1 (was BANKED_CODE)
  Relative segment, address: CODE 000068D2 - 000068DA (0x9 bytes), align: 0
  Segment part 84.            Intra module refs:   Segment part 83
                                                   _large_write
    -------------------------------------------------------------------------
<BANKED_CODE,BANK_RELAYS..> 1 (was BANKED_CODE)
  Relative segment, address: CODE 000068DB - 000068E8 (0xe bytes), align: 0
  Segment part 85.            Intra module refs:   _large_write
    -------------------------------------------------------------------------
<BANKED_CODE,BANK_RELAYS..> 1 (was BANKED_CODE)
  Relative segment, address: CODE 000068E9 - 000068F4 (0xc bytes), align: 0
  Segment part 86.            Intra module refs:   Segment part 106
                                                   Segment part 85
    -------------------------------------------------------------------------
<BANKED_CODE,BANK_RELAYS..> 1 (was BANKED_CODE)
  Relative segment, address: CODE 000068F5 - 000068FE (0xa bytes), align: 0
  Segment part 87.            Intra module refs:   _large_write
    -------------------------------------------------------------------------
<BANKED_CODE,BANK_RELAYS..> 1 (was BANKED_CODE)
  Relative segment, address: CODE 000068FF - 00006904 (0x6 bytes), align: 0
  Segment part 88.            Intra module refs:   _large_write
    -------------------------------------------------------------------------
<BANKED_CODE,BANK_RELAYS..> 1 (was BANKED_CODE)
  Relative segment, address: CODE 00006905 - 00006910 (0xc bytes), align: 0
  Segment part 89.            Intra module refs:   _large_write
    -------------------------------------------------------------------------
<BANKED_CODE,BANK_RELAYS..> 1 (was BANKED_CODE)
  Relative segment, address: CODE 00006911 - 00006918 (0x8 bytes), align: 0
  Segment part 90.            Intra module refs:   _large_write
    -------------------------------------------------------------------------
<BANKED_CODE,BANK_RELAYS..> 1 (was BANKED_CODE)
  Relative segment, address: CODE 00006919 - 0000691E (0x6 bytes), align: 0
  Segment part 91.            Intra module refs:   Segment part 90
                                                   _large_write
    -------------------------------------------------------------------------
<BANKED_CODE,BANK_RELAYS..> 1 (was BANKED_CODE)
  Relative segment, address: CODE 0000691F - 00006926 (0x8 bytes), align: 0
  Segment part 92.            Intra module refs:   _large_write
    -------------------------------------------------------------------------
<BANKED_CODE,BANK_RELAYS..> 1 (was BANKED_CODE)
  Relative segment, address: CODE 00006927 - 0000692E (0x8 bytes), align: 0
  Segment part 93.            Intra module refs:   _large_write
    -------------------------------------------------------------------------
<BANKED_CODE,BANK_RELAYS..> 1 (was BANKED_CODE)
  Relative segment, address: CODE 0000692F - 00006936 (0x8 bytes), align: 0
  Segment part 94.            Intra module refs:   _large_write
    -------------------------------------------------------------------------
<BANKED_CODE,BANK_RELAYS..> 1 (was BANKED_CODE)
  Relative segment, address: CODE 00006937 - 00006940 (0xa bytes), align: 0
  Segment part 95.            Intra module refs:   _large_write
    -------------------------------------------------------------------------
<BANKED_CODE,BANK_RELAYS..> 1 (was BANKED_CODE)
  Relative segment, address: CODE 00006941 - 00006947 (0x7 bytes), align: 0
  Segment part 96.            Intra module refs:   Segment part 95
                                                   _large_write
    -------------------------------------------------------------------------
<BANKED_CODE,BANK_RELAYS..> 1 (was BANKED_CODE)
  Relative segment, address: CODE 00006948 - 0000694A (0x3 bytes), align: 0
  Segment part 97.            Intra module refs:   _large_write
    -------------------------------------------------------------------------
<BANKED_CODE,BANK_RELAYS..> 1 (was BANKED_CODE)
  Relative segment, address: CODE 0000694B - 00006952 (0x8 bytes), align: 0
  Segment part 98.            Intra module refs:   Segment part 97
                                                   _large_write
    -------------------------------------------------------------------------
<BANKED_CODE,BANK_RELAYS..> 1 (was BANKED_CODE)
  Relative segment, address: CODE 00006953 - 00006956 (0x4 bytes), align: 0
  Segment part 99.            Intra module refs:   _large_write
                                                   float_conversion
    -------------------------------------------------------------------------
<BANKED_CODE,BANK_RELAYS..> 1 (was BANKED_CODE)
  Relative segment, address: CODE 00006957 - 0000695F (0x9 bytes), align: 0
  Segment part 100.           Intra module refs:   Segment part 101
                                                   Segment part 106
                                                   Segment part 99
    -------------------------------------------------------------------------
<BANKED_CODE,BANK_RELAYS..> 1 (was BANKED_CODE)
  Relative segment, address: CODE 00006960 - 00006966 (0x7 bytes), align: 0
  Segment part 101.           Intra module refs:   _large_write
    -------------------------------------------------------------------------
<BANKED_CODE,BANK_RELAYS..> 1 (was BANKED_CODE)
  Relative segment, address: CODE 00006967 - 0000696F (0x9 bytes), align: 0
  Segment part 102.           Intra module refs:   Segment part 101
                                                   Segment part 74
                                                   Segment part 82
    -------------------------------------------------------------------------
<BANKED_CODE,BANK_RELAYS..> 1 (was BANKED_CODE)
  Relative segment, address: CODE 00006970 - 00006975 (0x6 bytes), align: 0
  Segment part 103.           Intra module refs:   float_conversion
    -------------------------------------------------------------------------
<BANKED_CODE,BANK_RELAYS..> 1 (was BANKED_CODE)
  Relative segment, address: CODE 00006976 - 00006978 (0x3 bytes), align: 0
  Segment part 104.           Intra module refs:   Segment part 103
                                                   _large_write
    -------------------------------------------------------------------------
<BANKED_CODE,BANK_RELAYS..> 1 (was BANKED_CODE)
  Relative segment, address: CODE 00006979 - 0000697F (0x7 bytes), align: 0
  Segment part 105.           Intra module refs:   Segment part 104
                                                   float_conversion
    -------------------------------------------------------------------------
<BANKED_CODE,BANK_RELAYS..> 1 (was BANKED_CODE)
  Relative segment, address: CODE 00006980 - 00006991 (0x12 bytes), align: 0
  Segment part 106.           Intra module refs:   _large_write
    -------------------------------------------------------------------------
XDATA_ID
  Relative segment, address: CODE 00002093 - 000020A3 (0x11 bytes), align: 0
  Segment part 7.             Intra module refs:   Segment part 6
    -------------------------------------------------------------------------
XDATA_ID
  Relative segment, address: CODE 000020A4 - 000020B2 (0xf bytes), align: 0
  Segment part 9.             Intra module refs:   Segment part 8
    -------------------------------------------------------------------------
XDATA_ID
  Relative segment, address: CODE 000020B3 - 000020C3 (0x11 bytes), align: 0
  Segment part 11.            Intra module refs:   Segment part 10
    -------------------------------------------------------------------------
XDATA_ID
  Relative segment, address: CODE 000020C4 - 000020C7 (0x4 bytes), align: 0
  Segment part 13.            Intra module refs:   Segment part 12
    -------------------------------------------------------------------------
XDATA_ID
  Relative segment, address: CODE 000020C8 - 000020CB (0x4 bytes), align: 0
  Segment part 15.            Intra module refs:   __Constant_7f800000
    -------------------------------------------------------------------------
XDATA_ID
  Relative segment, address: CODE 000020CC - 000020CF (0x4 bytes), align: 0
  Segment part 17.            Intra module refs:   __Constant_3f800000
    -------------------------------------------------------------------------
XDATA_ID
  Relative segment, address: CODE 000020D0 - 000020D3 (0x4 bytes), align: 0
  Segment part 21.            Intra module refs:   __Constant_501502f9
    -------------------------------------------------------------------------
XDATA_ID
  Relative segment, address: CODE 000020D4 - 000020D7 (0x4 bytes), align: 0
  Segment part 23.            Intra module refs:   __Constant_51ba43b7
    -------------------------------------------------------------------------
XDATA_ID
  Relative segment, address: CODE 000020D8 - 000020DB (0x4 bytes), align: 0
  Segment part 25.            Intra module refs:   __Constant_41200000
    -------------------------------------------------------------------------
XDATA_ID
  Relative segment, address: CODE 000020DC - 000020DF (0x4 bytes), align: 0
  Segment part 27.            Intra module refs:   __Constant_2edbe700
    -------------------------------------------------------------------------
XDATA_ID
  Relative segment, address: CODE 000020E0 - 000020E3 (0x4 bytes), align: 0
  Segment part 29.            Intra module refs:   __Constant_40a00000
    -------------------------------------------------------------------------
<BANKED_CODE,BANK_RELAYS..> 1 (was BANK_RELAYS)
  Relative segment, address: CODE 0000314F - 00003154 (0x6 bytes), align: 0
  Segment part 31.            Intra module refs:   _large_write
           LOCAL                   ADDRESS         
           =====                   =======         
           float_conversion::?relay
                                   0000314F 
    -------------------------------------------------------------------------
<BANKED_CODE,BANK_RELAYS..> 1 (was BANK_RELAYS)
  Relative segment, address: CODE 00003155 - 0000315A (0x6 bytes), align: 0
  Segment part 51.
           ENTRY                   ADDRESS         REF BY
           =====                   =======         ======
           _large_write::?relay    00003155        sprintf (?sprintf)
    -------------------------------------------------------------------------
XDATA_I
  Relative segment, address: XDATA 000016C7 - 000016D7 (0x11 bytes), align: 0
  Segment part 6.             Intra module refs:   _large_write
    -------------------------------------------------------------------------
XDATA_I
  Relative segment, address: XDATA 000016D8 - 000016E6 (0xf bytes), align: 0
  Segment part 8.             Intra module refs:   _large_write
    -------------------------------------------------------------------------
XDATA_I
  Relative segment, address: XDATA 000016E7 - 000016F7 (0x11 bytes), align: 0
  Segment part 10.            Intra module refs:   _large_write
    -------------------------------------------------------------------------
XDATA_I
  Relative segment, address: XDATA 000016F8 - 000016FB (0x4 bytes), align: 0
  Segment part 12.            Intra module refs:   _large_write
    -------------------------------------------------------------------------
XDATA_I
  Relative segment, address: XDATA 000016FC - 000016FF (0x4 bytes), align: 0
  Segment part 14.            Intra module refs:   float_conversion
           ENTRY                   ADDRESS         REF BY
           =====                   =======         ======
           __Constant_7f800000     000016FC 
    -------------------------------------------------------------------------
XDATA_I
  Relative segment, address: XDATA 00001700 - 00001703 (0x4 bytes), align: 0
  Segment part 16.            Intra module refs:   float_conversion
           ENTRY                   ADDRESS         REF BY
           =====                   =======         ======
           __Constant_3f800000     00001700 
    -------------------------------------------------------------------------
XDATA_I
  Relative segment, address: XDATA 00001704 - 00001707 (0x4 bytes), align: 0
  Segment part 20.            Intra module refs:   float_conversion
           ENTRY                   ADDRESS         REF BY
           =====                   =======         ======
           __Constant_501502f9     00001704 
    -------------------------------------------------------------------------
XDATA_I
  Relative segment, address: XDATA 00001708 - 0000170B (0x4 bytes), align: 0
  Segment part 22.            Intra module refs:   float_conversion
           ENTRY                   ADDRESS         REF BY
           =====                   =======         ======
           __Constant_51ba43b7     00001708 
    -------------------------------------------------------------------------
XDATA_I
  Relative segment, address: XDATA 0000170C - 0000170F (0x4 bytes), align: 0
  Segment part 24.            Intra module refs:   float_conversion
           ENTRY                   ADDRESS         REF BY
           =====                   =======         ======
           __Constant_41200000     0000170C 
    -------------------------------------------------------------------------
XDATA_I
  Relative segment, address: XDATA 00001710 - 00001713 (0x4 bytes), align: 0
  Segment part 26.            Intra module refs:   float_conversion
           ENTRY                   ADDRESS         REF BY
           =====                   =======         ======
           __Constant_2edbe700     00001710 
    -------------------------------------------------------------------------
XDATA_I
  Relative segment, address: XDATA 00001714 - 00001717 (0x4 bytes), align: 0
  Segment part 28.            Intra module refs:   float_conversion
           ENTRY                   ADDRESS         REF BY
           =====                   =======         ======
           __Constant_40a00000     00001714 

    -------------------------------------------------------------------------
  LIBRARY MODULE, NAME : ?memcmp

  SEGMENTS IN THE MODULE
  ======================
<BANKED_CODE,BANK_RELAYS..> 1 (was BANKED_CODE)
  Relative segment, address: CODE 00007F6F - 00007FC0 (0x52 bytes), align: 0
  Segment part 6.             Intra module refs:   memcmp::?relay
           ENTRY                   ADDRESS         REF BY
           =====                   =======         ======
           memcmp                  00007F6F 
               XSTACK = 00000002 ( 0000000C )
    -------------------------------------------------------------------------
<BANKED_CODE,BANK_RELAYS..> 1 (was BANK_RELAYS)
  Relative segment, address: CODE 0000315B - 00003160 (0x6 bytes), align: 0
  Segment part 7.
           ENTRY                   ADDRESS         REF BY
           =====                   =======         ======
           memcmp::?relay          0000315B        PhyDataIndication (sMac)

    -------------------------------------------------------------------------
  LIBRARY MODULE, NAME : ?memcpy

  SEGMENTS IN THE MODULE
  ======================
<BANKED_CODE,XDATA_ROM_C_FLASH> 1 (was BANKED_CODE)
  Relative segment, address: CODE 0000A50B - 0000A550 (0x46 bytes), align: 0
  Segment part 6.             Intra module refs:   memcpy::?relay
           ENTRY                   ADDRESS         REF BY
           =====                   =======         ======
           memcpy                  0000A50B 
               XSTACK = 00000002 ( 0000000A )
               ISTACK = 00000000 ( 00000001 )
    -------------------------------------------------------------------------
<BANKED_CODE,BANK_RELAYS..> 1 (was BANK_RELAYS)
  Relative segment, address: CODE 00003161 - 00003166 (0x6 bytes), align: 0
  Segment part 7.
           ENTRY                   ADDRESS         REF BY
           =====                   =======         ======
           memcpy::?relay          00003161        AppTask (Application)
                                                   BC95InitAT (BC95)
                                                   BC95IoTHeaderAdd (BC95)
                                                   BC95PollingAT (BC95)
                                                   PhySend (sMac)
                                                   atcmd_resp_search (netMngr)
                                                   attributeGet (attribute)
                                                   sMacTask (sMac)

    -------------------------------------------------------------------------
  LIBRARY MODULE, NAME : ?memset

  SEGMENTS IN THE MODULE
  ======================
<BANKED_CODE,XDATA_ROM_C_FLASH> 1 (was BANKED_CODE)
  Relative segment, address: CODE 0000A551 - 0000A57C (0x2c bytes), align: 0
  Segment part 6.             Intra module refs:   memset::?relay
           ENTRY                   ADDRESS         REF BY
           =====                   =======         ======
           memset                  0000A551 
               XSTACK = 00000002 ( 00000000 )
               ISTACK = 00000000 ( 00000002 )
    -------------------------------------------------------------------------
<BANKED_CODE,BANK_RELAYS..> 1 (was BANK_RELAYS)
  Relative segment, address: CODE 00003167 - 0000316C (0x6 bytes), align: 0
  Segment part 7.
           ENTRY                   ADDRESS         REF BY
           =====                   =======         ======
           memset::?relay          00003167        AppTask (Application)
                                                   BC95PollingAT (BC95)
                                                   BC95RxIndicationSearch (BC95)
                                                   atCmdStart (netMngr)
                                                   atcmd_resp_search (netMngr)
                                                   netSend (netMngr)
                                                   nvramInit (nvram)
                                                   sMacInit (sMac)
                                                   sNwkInit (sNwk)

    -------------------------------------------------------------------------
  LIBRARY MODULE, NAME : ?sprintf

  SEGMENTS IN THE MODULE
  ======================
<BANKED_CODE,XDATA_ROM_C_FLASH> 1 (was BANKED_CODE)
  Relative segment, address: CODE 0000A475 - 0000A49E (0x2a bytes), align: 0
  Segment part 6.             Intra module refs:   put_c_in_string::?relay
           LOCAL                   ADDRESS         
           =====                   =======         
           put_c_in_string         0000A475 
               is indirectly called
               ISTACK = 00000000 ( 00000003 )
    -------------------------------------------------------------------------
<BANKED_CODE,XDATA_ROM_C_FLASH> 1 (was BANKED_CODE)
  Relative segment, address: CODE 0000A49F - 0000A501 (0x63 bytes), align: 0
  Segment part 8.             Intra module refs:   sprintf::?relay
           ENTRY                   ADDRESS         REF BY
           =====                   =======         ======
           sprintf                 0000A49F 
               calls direct
               XSTACK = 00000000 ( 00000012 )
    -------------------------------------------------------------------------
<BANKED_CODE,XDATA_ROM_C_FLASH> 1 (was BANKED_CODE)
  Relative segment, address: CODE 0000A502 - 0000A50A (0x9 bytes), align: 0
  Segment part 10.            Intra module refs:   put_c_in_string
                                                   sprintf
    -------------------------------------------------------------------------
<BANKED_CODE,BANK_RELAYS..> 1 (was BANK_RELAYS)
  Relative segment, address: CODE 0000316D - 00003172 (0x6 bytes), align: 0
  Segment part 7.             Intra module refs:   sprintf
           LOCAL                   ADDRESS         
           =====                   =======         
           put_c_in_string::?relay
                                   0000316D 
    -------------------------------------------------------------------------
<BANKED_CODE,BANK_RELAYS..> 1 (was BANK_RELAYS)
  Relative segment, address: CODE 00003173 - 00003178 (0x6 bytes), align: 0
  Segment part 9.
           ENTRY                   ADDRESS         REF BY
           =====                   =======         ======
           sprintf::?relay         00003173        BC95PollingAT (BC95)

    -------------------------------------------------------------------------
  LIBRARY MODULE, NAME : ?strcpy

  SEGMENTS IN THE MODULE
  ======================
<BANKED_CODE,XDATA_ROM_C_FLASH> 1 (was BANKED_CODE)
  Relative segment, address: CODE 0000A5A6 - 0000A5CD (0x28 bytes), align: 0
  Segment part 6.             Intra module refs:   strcpy::?relay
           ENTRY                   ADDRESS         REF BY
           =====                   =======         ======
           strcpy                  0000A5A6 
               XSTACK = 00000000 ( 00000009 )
               ISTACK = 00000000 ( 00000001 )
    -------------------------------------------------------------------------
<BANKED_CODE,BANK_RELAYS..> 1 (was BANK_RELAYS)
  Relative segment, address: CODE 00003179 - 0000317E (0x6 bytes), align: 0
  Segment part 7.
           ENTRY                   ADDRESS         REF BY
           =====                   =======         ======
           strcpy::?relay          00003179        atCmdStart (netMngr)

    -------------------------------------------------------------------------
  LIBRARY MODULE, NAME : ?strlen

  SEGMENTS IN THE MODULE
  ======================
<BANKED_CODE,XDATA_ROM_C_FLASH> 1 (was BANKED_CODE)
  Relative segment, address: CODE 0000A5CE - 0000A5EB (0x1e bytes), align: 0
  Segment part 6.             Intra module refs:   strlen::?relay
           ENTRY                   ADDRESS         REF BY
           =====                   =======         ======
           strlen                  0000A5CE 
               ISTACK = 00000000 ( 00000002 )
    -------------------------------------------------------------------------
<BANKED_CODE,BANK_RELAYS..> 1 (was BANK_RELAYS)
  Relative segment, address: CODE 0000317F - 00003184 (0x6 bytes), align: 0
  Segment part 7.
           ENTRY                   ADDRESS         REF BY
           =====                   =======         ======
           strlen::?relay          0000317F        BC95PollingAT (BC95)
                                                   atCmdStart (netMngr)
                                                   atcmd_resp_search (netMngr)

    *************************************************************************

  DEFINED ABSOLUTE ENTRIES
  PROGRAM MODULE, NAME : ?FILLER_BYTES

  SEGMENTS IN THE MODULE
  ======================
INTVEC
  Common segment, address: CODE 00002000 - 00002085 (0x86 bytes), align: 0
  Segment part 9.
    -------------------------------------------------------------------------
?FILL9
  Relative segment, address: CODE 00038000 - 0003C7FF (0x4800 bytes), align: 0
  Segment part 8.
    -------------------------------------------------------------------------
?FILL8
  Relative segment, address: CODE 00030000 - 00037FFF (0x8000 bytes), align: 0
  Segment part 7.
    -------------------------------------------------------------------------
?FILL7
  Relative segment, address: CODE 00028000 - 0002FFFF (0x8000 bytes), align: 0
  Segment part 6.
    -------------------------------------------------------------------------
?FILL6
  Relative segment, address: CODE 00020000 - 00027FFF (0x8000 bytes), align: 0
  Segment part 5.
    -------------------------------------------------------------------------
?FILL5
  Relative segment, address: CODE 00018000 - 0001FFFF (0x8000 bytes), align: 0
  Segment part 4.
    -------------------------------------------------------------------------
?FILL4
  Relative segment, address: CODE 00010000 - 00017FFF (0x8000 bytes), align: 0
  Segment part 3.
    -------------------------------------------------------------------------
?FILL3
  Relative segment, address: CODE 0000A615 - 0000FFFF (0x59eb bytes), align: 0
  Segment part 2.
    -------------------------------------------------------------------------
?FILL2
  Relative segment, address: CODE 00007FF8 - 00007FFF (0x8 bytes), align: 0
  Segment part 1.
    -------------------------------------------------------------------------
?FILL1
  Relative segment, address: CODE 00002086 - 0000208F (0xa bytes), align: 0
  Segment part 0.

    *************************************************************************

  DEFINED ABSOLUTE ENTRIES
  PROGRAM MODULE, NAME : ?CHECKSUM

  SEGMENTS IN THE MODULE
  ======================
CHECKSUM
  Relative segment, address: CODE 00002090 - 00002091 (0x2 bytes), align: 0
  Segment part 1. ROOT.
           ENTRY                   ADDRESS         REF BY
           =====                   =======         ======
           __checksum              00002090 




                ****************************************
                *                                      *
                *      SEGMENTS IN ADDRESS ORDER       *
                *                                      *
                ****************************************


SEGMENT              SPACE    START ADDRESS   END ADDRESS     SIZE  TYPE  ALIGN
=======              =====    =============   ===========     ====  ====  =====
INTVEC               CODE          00002000 - 00002085          86   com    0
IXDATA_ID            CODE               00002086                     dse    0
IDATA_ID             CODE               00002086                     dse    0
DATA_ID              CODE               00002086                     dse    0
BDATA_ID             CODE               00002086                     dse    0
PDATA_Z              CODE               00002086                     dse    0
PDATA_ID             CODE               00002086                     dse    0
BIT_ID               CODE               00002086                     dse    0
?FILL1               CODE          00002086 - 0000208F           A   rel    0
CHECKSUM             CODE          00002090 - 00002091           2   rel    0
XDATA_ID             CODE          00002092 - 000020E3          52   rel    0
<BANKED_CODE,BANK_RELAYS..> 1
                     CODE          000020E4 - 00007FF7        5F14   rel    0
?FILL2               CODE          00007FF8 - 00007FFF           8   rel    0
<BANKED_CODE,XDATA_ROM_C_FLASH> 1
                     CODE          00008000 - 0000A614        2615   rel    0
?FILL3               CODE          0000A615 - 0000FFFF        59EB   rel    0
?FILL4               CODE          00010000 - 00017FFF        8000   rel    0
?FILL5               CODE          00018000 - 0001FFFF        8000   rel    0
?FILL6               CODE          00020000 - 00027FFF        8000   rel    0
?FILL7               CODE          00028000 - 0002FFFF        8000   rel    0
?FILL8               CODE          00030000 - 00037FFF        8000   rel    0
?FILL9               CODE          00038000 - 0003C7FF        4800   rel    0
REGISTERS            DATA          00000000 - 00000007           8   rel    0
VREG                 DATA          00000008 - 0000000F           8   rel    0
PSP                  DATA               00000010                     dse    0
XSP                  DATA          00000010 - 00000011           2   rel    0
BREG                 BIT        00000020.0  -  00000020.7        8   rel    0
SFR_AN               DATA          00000080 - 00000080           1   rel    0
                     DATA          00000086 - 00000086           1 
                     DATA          00000088 - 00000088           1 
                     DATA          0000008F - 00000091           3 
                     DATA          00000095 - 00000097           3 
                     DATA          0000009A - 0000009B           2 
                     DATA          0000009D - 0000009E           2 
                     DATA          000000A8 - 000000A9           2 
                     DATA          000000AD - 000000AD           1 
                     DATA          000000B4 - 000000B4           1 
                     DATA          000000B9 - 000000B9           1 
                     DATA          000000BC - 000000C1           6 
                     DATA          000000C6 - 000000C7           2 
                     DATA          000000C9 - 000000C9           1 
                     DATA          000000D1 - 000000D1           1 
                     DATA          000000D4 - 000000D6           3 
                     DATA          000000D9 - 000000DB           3 
                     DATA          000000DE - 000000DF           2 
                     DATA          000000E1 - 000000E1           1 
                     DATA          000000E4 - 000000E5           2 
                     DATA          000000E7 - 000000E7           1 
                     DATA          000000E9 - 000000E9           1 
                     DATA          000000F1 - 000000F1           1 
                     DATA          000000F3 - 000000F4           2 
                     DATA          000000F7 - 000000FE           8 
XSTACK               XDATA         00000001 - 00000300         300   rel    0
XDATA_Z              XDATA         00000301 - 000016C5        13C5   rel    0
XDATA_I              XDATA         000016C6 - 00001717          52   rel    0
<XDATA_ROM_C> 1      CONST         00008000 - 00008378         379   rel    0
ISTACK               IDATA         000000C0 - 000000FF          40   rel    0


                ****************************************
                *                                      *
                *              CHECKSUMS               *
                *                                      *
                ****************************************

Symbol      Checksum  Memory  Start      End       Initial value
------      --------  ------  -----      ---       -------------
__checksum    0x6ad3   CODE   00002000 - 0000208F  0x0000 (#0x0000)
                       CODE   00002094 - 00007FFF
                       CODE   00008000 - 0000FFFF
                       CODE   00010000 - 00017FFF
                       CODE   00018000 - 0001FFFF
                       CODE   00020000 - 00027FFF
                       CODE   00028000 - 0002FFFF
                       CODE   00030000 - 00037FFF
                       CODE   00038000 - 0003C7FF

                ****************************************
                *                                      *
                *        END OF CROSS REFERENCE        *
                *                                      *
                ****************************************

 34 307 bytes of CODE  memory (+             205 309 range fill )
     18 bytes of DATA  memory (+ 52 absolute )
  5 911 bytes of XDATA memory
     64 bytes of IDATA memory
      8 bits  of BIT   memory
    889 bytes of CONST memory

Errors: none
Warnings: none

